
main.o:     file format elf64-x86-64


Disassembly of section .text:

0000000000000000 <criaDadosSade>:
       0:	f3 0f 1e fa          	endbr64 
       4:	55                   	push   %rbp
       5:	48 89 e5             	mov    %rsp,%rbp
       8:	48 83 ec 10          	sub    $0x10,%rsp
       c:	be 50 00 00 00       	mov    $0x50,%esi
      11:	bf 01 00 00 00       	mov    $0x1,%edi
      16:	e8 00 00 00 00       	call   1b <criaDadosSade+0x1b>
      1b:	48 89 45 f8          	mov    %rax,-0x8(%rbp)
      1f:	48 8b 45 f8          	mov    -0x8(%rbp),%rax
      23:	48 c7 00 00 00 00 00 	movq   $0x0,(%rax)
      2a:	48 8b 45 f8          	mov    -0x8(%rbp),%rax
      2e:	c7 40 08 00 00 00 00 	movl   $0x0,0x8(%rax)
      35:	48 8b 45 f8          	mov    -0x8(%rbp),%rax
      39:	48 c7 40 10 00 00 00 	movq   $0x0,0x10(%rax)
      40:	00 
      41:	48 8b 45 f8          	mov    -0x8(%rbp),%rax
      45:	c7 40 18 00 00 00 00 	movl   $0x0,0x18(%rax)
      4c:	48 8b 45 f8          	mov    -0x8(%rbp),%rax
      50:	48 c7 40 20 00 00 00 	movq   $0x0,0x20(%rax)
      57:	00 
      58:	48 8b 45 f8          	mov    -0x8(%rbp),%rax
      5c:	c7 40 28 00 00 00 00 	movl   $0x0,0x28(%rax)
      63:	48 8b 45 f8          	mov    -0x8(%rbp),%rax
      67:	48 c7 40 30 00 00 00 	movq   $0x0,0x30(%rax)
      6e:	00 
      6f:	48 8b 45 f8          	mov    -0x8(%rbp),%rax
      73:	c7 40 38 00 00 00 00 	movl   $0x0,0x38(%rax)
      7a:	48 8b 45 f8          	mov    -0x8(%rbp),%rax
      7e:	48 c7 40 40 00 00 00 	movq   $0x0,0x40(%rax)
      85:	00 
      86:	48 8b 45 f8          	mov    -0x8(%rbp),%rax
      8a:	c7 40 48 00 00 00 00 	movl   $0x0,0x48(%rax)
      91:	48 8b 45 f8          	mov    -0x8(%rbp),%rax
      95:	c9                   	leave  
      96:	c3                   	ret    

0000000000000097 <adicionaSecretarioSade>:
      97:	f3 0f 1e fa          	endbr64 
      9b:	55                   	push   %rbp
      9c:	48 89 e5             	mov    %rsp,%rbp
      9f:	48 83 ec 10          	sub    $0x10,%rsp
      a3:	48 89 7d f8          	mov    %rdi,-0x8(%rbp)
      a7:	48 89 75 f0          	mov    %rsi,-0x10(%rbp)
      ab:	48 8b 45 f8          	mov    -0x8(%rbp),%rax
      af:	8b 40 08             	mov    0x8(%rax),%eax
      b2:	8d 50 01             	lea    0x1(%rax),%edx
      b5:	48 8b 45 f8          	mov    -0x8(%rbp),%rax
      b9:	89 50 08             	mov    %edx,0x8(%rax)
      bc:	48 8b 45 f8          	mov    -0x8(%rbp),%rax
      c0:	8b 40 08             	mov    0x8(%rax),%eax
      c3:	48 98                	cltq   
      c5:	48 8d 14 c5 00 00 00 	lea    0x0(,%rax,8),%rdx
      cc:	00 
      cd:	48 8b 45 f8          	mov    -0x8(%rbp),%rax
      d1:	48 8b 00             	mov    (%rax),%rax
      d4:	48 89 d6             	mov    %rdx,%rsi
      d7:	48 89 c7             	mov    %rax,%rdi
      da:	e8 00 00 00 00       	call   df <adicionaSecretarioSade+0x48>
      df:	48 8b 55 f8          	mov    -0x8(%rbp),%rdx
      e3:	48 89 02             	mov    %rax,(%rdx)
      e6:	48 8b 45 f8          	mov    -0x8(%rbp),%rax
      ea:	48 8b 10             	mov    (%rax),%rdx
      ed:	48 8b 45 f8          	mov    -0x8(%rbp),%rax
      f1:	8b 40 08             	mov    0x8(%rax),%eax
      f4:	48 98                	cltq   
      f6:	48 c1 e0 03          	shl    $0x3,%rax
      fa:	48 83 e8 08          	sub    $0x8,%rax
      fe:	48 01 c2             	add    %rax,%rdx
     101:	48 8b 45 f0          	mov    -0x10(%rbp),%rax
     105:	48 89 02             	mov    %rax,(%rdx)
     108:	48 8b 45 f8          	mov    -0x8(%rbp),%rax
     10c:	8b 40 08             	mov    0x8(%rax),%eax
     10f:	8d 50 ff             	lea    -0x1(%rax),%edx
     112:	48 8b 45 f0          	mov    -0x10(%rbp),%rax
     116:	89 d6                	mov    %edx,%esi
     118:	48 89 c7             	mov    %rax,%rdi
     11b:	e8 00 00 00 00       	call   120 <adicionaSecretarioSade+0x89>
     120:	90                   	nop
     121:	c9                   	leave  
     122:	c3                   	ret    

0000000000000123 <adicionaMedicoSade>:
     123:	f3 0f 1e fa          	endbr64 
     127:	55                   	push   %rbp
     128:	48 89 e5             	mov    %rsp,%rbp
     12b:	48 83 ec 10          	sub    $0x10,%rsp
     12f:	48 89 7d f8          	mov    %rdi,-0x8(%rbp)
     133:	48 89 75 f0          	mov    %rsi,-0x10(%rbp)
     137:	48 8b 45 f8          	mov    -0x8(%rbp),%rax
     13b:	8b 40 18             	mov    0x18(%rax),%eax
     13e:	8d 50 01             	lea    0x1(%rax),%edx
     141:	48 8b 45 f8          	mov    -0x8(%rbp),%rax
     145:	89 50 18             	mov    %edx,0x18(%rax)
     148:	48 8b 45 f8          	mov    -0x8(%rbp),%rax
     14c:	8b 40 18             	mov    0x18(%rax),%eax
     14f:	48 98                	cltq   
     151:	48 8d 14 c5 00 00 00 	lea    0x0(,%rax,8),%rdx
     158:	00 
     159:	48 8b 45 f8          	mov    -0x8(%rbp),%rax
     15d:	48 8b 40 10          	mov    0x10(%rax),%rax
     161:	48 89 d6             	mov    %rdx,%rsi
     164:	48 89 c7             	mov    %rax,%rdi
     167:	e8 00 00 00 00       	call   16c <adicionaMedicoSade+0x49>
     16c:	48 8b 55 f8          	mov    -0x8(%rbp),%rdx
     170:	48 89 42 10          	mov    %rax,0x10(%rdx)
     174:	48 8b 45 f8          	mov    -0x8(%rbp),%rax
     178:	48 8b 50 10          	mov    0x10(%rax),%rdx
     17c:	48 8b 45 f8          	mov    -0x8(%rbp),%rax
     180:	8b 40 18             	mov    0x18(%rax),%eax
     183:	48 98                	cltq   
     185:	48 c1 e0 03          	shl    $0x3,%rax
     189:	48 83 e8 08          	sub    $0x8,%rax
     18d:	48 01 c2             	add    %rax,%rdx
     190:	48 8b 45 f0          	mov    -0x10(%rbp),%rax
     194:	48 89 02             	mov    %rax,(%rdx)
     197:	48 8b 45 f8          	mov    -0x8(%rbp),%rax
     19b:	8b 40 18             	mov    0x18(%rax),%eax
     19e:	8d 50 ff             	lea    -0x1(%rax),%edx
     1a1:	48 8b 45 f0          	mov    -0x10(%rbp),%rax
     1a5:	89 d6                	mov    %edx,%esi
     1a7:	48 89 c7             	mov    %rax,%rdi
     1aa:	e8 00 00 00 00       	call   1af <adicionaMedicoSade+0x8c>
     1af:	90                   	nop
     1b0:	c9                   	leave  
     1b1:	c3                   	ret    

00000000000001b2 <adicionaPacienteSade>:
     1b2:	f3 0f 1e fa          	endbr64 
     1b6:	55                   	push   %rbp
     1b7:	48 89 e5             	mov    %rsp,%rbp
     1ba:	48 83 ec 10          	sub    $0x10,%rsp
     1be:	48 89 7d f8          	mov    %rdi,-0x8(%rbp)
     1c2:	48 89 75 f0          	mov    %rsi,-0x10(%rbp)
     1c6:	48 8b 45 f8          	mov    -0x8(%rbp),%rax
     1ca:	8b 40 28             	mov    0x28(%rax),%eax
     1cd:	8d 50 01             	lea    0x1(%rax),%edx
     1d0:	48 8b 45 f8          	mov    -0x8(%rbp),%rax
     1d4:	89 50 28             	mov    %edx,0x28(%rax)
     1d7:	48 8b 45 f8          	mov    -0x8(%rbp),%rax
     1db:	8b 40 28             	mov    0x28(%rax),%eax
     1de:	48 98                	cltq   
     1e0:	48 8d 14 c5 00 00 00 	lea    0x0(,%rax,8),%rdx
     1e7:	00 
     1e8:	48 8b 45 f8          	mov    -0x8(%rbp),%rax
     1ec:	48 8b 40 20          	mov    0x20(%rax),%rax
     1f0:	48 89 d6             	mov    %rdx,%rsi
     1f3:	48 89 c7             	mov    %rax,%rdi
     1f6:	e8 00 00 00 00       	call   1fb <adicionaPacienteSade+0x49>
     1fb:	48 8b 55 f8          	mov    -0x8(%rbp),%rdx
     1ff:	48 89 42 20          	mov    %rax,0x20(%rdx)
     203:	48 8b 45 f8          	mov    -0x8(%rbp),%rax
     207:	48 8b 50 20          	mov    0x20(%rax),%rdx
     20b:	48 8b 45 f8          	mov    -0x8(%rbp),%rax
     20f:	8b 40 28             	mov    0x28(%rax),%eax
     212:	48 98                	cltq   
     214:	48 c1 e0 03          	shl    $0x3,%rax
     218:	48 83 e8 08          	sub    $0x8,%rax
     21c:	48 01 c2             	add    %rax,%rdx
     21f:	48 8b 45 f0          	mov    -0x10(%rbp),%rax
     223:	48 89 02             	mov    %rax,(%rdx)
     226:	48 8b 45 f8          	mov    -0x8(%rbp),%rax
     22a:	8b 40 28             	mov    0x28(%rax),%eax
     22d:	8d 50 ff             	lea    -0x1(%rax),%edx
     230:	48 8b 45 f0          	mov    -0x10(%rbp),%rax
     234:	89 d6                	mov    %edx,%esi
     236:	48 89 c7             	mov    %rax,%rdi
     239:	e8 00 00 00 00       	call   23e <adicionaPacienteSade+0x8c>
     23e:	90                   	nop
     23f:	c9                   	leave  
     240:	c3                   	ret    

0000000000000241 <adicionaLesaoSade>:
     241:	f3 0f 1e fa          	endbr64 
     245:	55                   	push   %rbp
     246:	48 89 e5             	mov    %rsp,%rbp
     249:	48 83 ec 10          	sub    $0x10,%rsp
     24d:	48 89 7d f8          	mov    %rdi,-0x8(%rbp)
     251:	48 89 75 f0          	mov    %rsi,-0x10(%rbp)
     255:	48 8b 45 f8          	mov    -0x8(%rbp),%rax
     259:	8b 40 38             	mov    0x38(%rax),%eax
     25c:	8d 50 01             	lea    0x1(%rax),%edx
     25f:	48 8b 45 f8          	mov    -0x8(%rbp),%rax
     263:	89 50 38             	mov    %edx,0x38(%rax)
     266:	48 8b 45 f8          	mov    -0x8(%rbp),%rax
     26a:	8b 40 38             	mov    0x38(%rax),%eax
     26d:	48 98                	cltq   
     26f:	48 8d 14 c5 00 00 00 	lea    0x0(,%rax,8),%rdx
     276:	00 
     277:	48 8b 45 f8          	mov    -0x8(%rbp),%rax
     27b:	48 8b 40 30          	mov    0x30(%rax),%rax
     27f:	48 89 d6             	mov    %rdx,%rsi
     282:	48 89 c7             	mov    %rax,%rdi
     285:	e8 00 00 00 00       	call   28a <adicionaLesaoSade+0x49>
     28a:	48 8b 55 f8          	mov    -0x8(%rbp),%rdx
     28e:	48 89 42 30          	mov    %rax,0x30(%rdx)
     292:	48 8b 45 f8          	mov    -0x8(%rbp),%rax
     296:	48 8b 50 30          	mov    0x30(%rax),%rdx
     29a:	48 8b 45 f8          	mov    -0x8(%rbp),%rax
     29e:	8b 40 38             	mov    0x38(%rax),%eax
     2a1:	48 98                	cltq   
     2a3:	48 c1 e0 03          	shl    $0x3,%rax
     2a7:	48 83 e8 08          	sub    $0x8,%rax
     2ab:	48 01 c2             	add    %rax,%rdx
     2ae:	48 8b 45 f0          	mov    -0x10(%rbp),%rax
     2b2:	48 89 02             	mov    %rax,(%rdx)
     2b5:	48 8b 45 f8          	mov    -0x8(%rbp),%rax
     2b9:	8b 40 38             	mov    0x38(%rax),%eax
     2bc:	8d 50 ff             	lea    -0x1(%rax),%edx
     2bf:	48 8b 45 f0          	mov    -0x10(%rbp),%rax
     2c3:	89 d6                	mov    %edx,%esi
     2c5:	48 89 c7             	mov    %rax,%rdi
     2c8:	e8 00 00 00 00       	call   2cd <adicionaLesaoSade+0x8c>
     2cd:	90                   	nop
     2ce:	c9                   	leave  
     2cf:	c3                   	ret    

00000000000002d0 <adicionaConsultaSade>:
     2d0:	f3 0f 1e fa          	endbr64 
     2d4:	55                   	push   %rbp
     2d5:	48 89 e5             	mov    %rsp,%rbp
     2d8:	48 83 ec 10          	sub    $0x10,%rsp
     2dc:	48 89 7d f8          	mov    %rdi,-0x8(%rbp)
     2e0:	48 89 75 f0          	mov    %rsi,-0x10(%rbp)
     2e4:	48 8b 45 f8          	mov    -0x8(%rbp),%rax
     2e8:	8b 40 48             	mov    0x48(%rax),%eax
     2eb:	8d 50 01             	lea    0x1(%rax),%edx
     2ee:	48 8b 45 f8          	mov    -0x8(%rbp),%rax
     2f2:	89 50 48             	mov    %edx,0x48(%rax)
     2f5:	48 8b 45 f8          	mov    -0x8(%rbp),%rax
     2f9:	8b 40 48             	mov    0x48(%rax),%eax
     2fc:	48 98                	cltq   
     2fe:	48 8d 14 c5 00 00 00 	lea    0x0(,%rax,8),%rdx
     305:	00 
     306:	48 8b 45 f8          	mov    -0x8(%rbp),%rax
     30a:	48 8b 40 40          	mov    0x40(%rax),%rax
     30e:	48 89 d6             	mov    %rdx,%rsi
     311:	48 89 c7             	mov    %rax,%rdi
     314:	e8 00 00 00 00       	call   319 <adicionaConsultaSade+0x49>
     319:	48 8b 55 f8          	mov    -0x8(%rbp),%rdx
     31d:	48 89 42 40          	mov    %rax,0x40(%rdx)
     321:	48 8b 45 f8          	mov    -0x8(%rbp),%rax
     325:	48 8b 50 40          	mov    0x40(%rax),%rdx
     329:	48 8b 45 f8          	mov    -0x8(%rbp),%rax
     32d:	8b 40 48             	mov    0x48(%rax),%eax
     330:	48 98                	cltq   
     332:	48 c1 e0 03          	shl    $0x3,%rax
     336:	48 83 e8 08          	sub    $0x8,%rax
     33a:	48 01 c2             	add    %rax,%rdx
     33d:	48 8b 45 f0          	mov    -0x10(%rbp),%rax
     341:	48 89 02             	mov    %rax,(%rdx)
     344:	48 8b 45 f8          	mov    -0x8(%rbp),%rax
     348:	8b 40 48             	mov    0x48(%rax),%eax
     34b:	8d 50 ff             	lea    -0x1(%rax),%edx
     34e:	48 8b 45 f0          	mov    -0x10(%rbp),%rax
     352:	89 d6                	mov    %edx,%esi
     354:	48 89 c7             	mov    %rax,%rdi
     357:	e8 00 00 00 00       	call   35c <adicionaConsultaSade+0x8c>
     35c:	90                   	nop
     35d:	c9                   	leave  
     35e:	c3                   	ret    

000000000000035f <buscaSecretarioPorCPF>:
     35f:	f3 0f 1e fa          	endbr64 
     363:	55                   	push   %rbp
     364:	48 89 e5             	mov    %rsp,%rbp
     367:	48 83 ec 20          	sub    $0x20,%rsp
     36b:	48 89 7d e8          	mov    %rdi,-0x18(%rbp)
     36f:	48 89 75 e0          	mov    %rsi,-0x20(%rbp)
     373:	c7 45 fc 00 00 00 00 	movl   $0x0,-0x4(%rbp)
     37a:	eb 33                	jmp    3af <buscaSecretarioPorCPF+0x50>
     37c:	48 8b 45 e8          	mov    -0x18(%rbp),%rax
     380:	48 8b 00             	mov    (%rax),%rax
     383:	8b 55 fc             	mov    -0x4(%rbp),%edx
     386:	48 63 d2             	movslq %edx,%rdx
     389:	48 c1 e2 03          	shl    $0x3,%rdx
     38d:	48 01 d0             	add    %rdx,%rax
     390:	48 8b 00             	mov    (%rax),%rax
     393:	48 8b 55 e0          	mov    -0x20(%rbp),%rdx
     397:	48 89 d6             	mov    %rdx,%rsi
     39a:	48 89 c7             	mov    %rax,%rdi
     39d:	e8 00 00 00 00       	call   3a2 <buscaSecretarioPorCPF+0x43>
     3a2:	85 c0                	test   %eax,%eax
     3a4:	74 05                	je     3ab <buscaSecretarioPorCPF+0x4c>
     3a6:	8b 45 fc             	mov    -0x4(%rbp),%eax
     3a9:	eb 15                	jmp    3c0 <buscaSecretarioPorCPF+0x61>
     3ab:	83 45 fc 01          	addl   $0x1,-0x4(%rbp)
     3af:	48 8b 45 e8          	mov    -0x18(%rbp),%rax
     3b3:	8b 40 08             	mov    0x8(%rax),%eax
     3b6:	39 45 fc             	cmp    %eax,-0x4(%rbp)
     3b9:	7c c1                	jl     37c <buscaSecretarioPorCPF+0x1d>
     3bb:	b8 ff ff ff ff       	mov    $0xffffffff,%eax
     3c0:	c9                   	leave  
     3c1:	c3                   	ret    

00000000000003c2 <buscaMedicoPorCPF>:
     3c2:	f3 0f 1e fa          	endbr64 
     3c6:	55                   	push   %rbp
     3c7:	48 89 e5             	mov    %rsp,%rbp
     3ca:	48 83 ec 20          	sub    $0x20,%rsp
     3ce:	48 89 7d e8          	mov    %rdi,-0x18(%rbp)
     3d2:	48 89 75 e0          	mov    %rsi,-0x20(%rbp)
     3d6:	c7 45 fc 00 00 00 00 	movl   $0x0,-0x4(%rbp)
     3dd:	eb 34                	jmp    413 <buscaMedicoPorCPF+0x51>
     3df:	48 8b 45 e8          	mov    -0x18(%rbp),%rax
     3e3:	48 8b 40 10          	mov    0x10(%rax),%rax
     3e7:	8b 55 fc             	mov    -0x4(%rbp),%edx
     3ea:	48 63 d2             	movslq %edx,%rdx
     3ed:	48 c1 e2 03          	shl    $0x3,%rdx
     3f1:	48 01 d0             	add    %rdx,%rax
     3f4:	48 8b 00             	mov    (%rax),%rax
     3f7:	48 8b 55 e0          	mov    -0x20(%rbp),%rdx
     3fb:	48 89 d6             	mov    %rdx,%rsi
     3fe:	48 89 c7             	mov    %rax,%rdi
     401:	e8 00 00 00 00       	call   406 <buscaMedicoPorCPF+0x44>
     406:	85 c0                	test   %eax,%eax
     408:	74 05                	je     40f <buscaMedicoPorCPF+0x4d>
     40a:	8b 45 fc             	mov    -0x4(%rbp),%eax
     40d:	eb 15                	jmp    424 <buscaMedicoPorCPF+0x62>
     40f:	83 45 fc 01          	addl   $0x1,-0x4(%rbp)
     413:	48 8b 45 e8          	mov    -0x18(%rbp),%rax
     417:	8b 40 18             	mov    0x18(%rax),%eax
     41a:	39 45 fc             	cmp    %eax,-0x4(%rbp)
     41d:	7c c0                	jl     3df <buscaMedicoPorCPF+0x1d>
     41f:	b8 ff ff ff ff       	mov    $0xffffffff,%eax
     424:	c9                   	leave  
     425:	c3                   	ret    

0000000000000426 <buscaPacientePorCPF>:
     426:	f3 0f 1e fa          	endbr64 
     42a:	55                   	push   %rbp
     42b:	48 89 e5             	mov    %rsp,%rbp
     42e:	48 83 ec 20          	sub    $0x20,%rsp
     432:	48 89 7d e8          	mov    %rdi,-0x18(%rbp)
     436:	48 89 75 e0          	mov    %rsi,-0x20(%rbp)
     43a:	c7 45 fc 00 00 00 00 	movl   $0x0,-0x4(%rbp)
     441:	eb 34                	jmp    477 <buscaPacientePorCPF+0x51>
     443:	48 8b 45 e8          	mov    -0x18(%rbp),%rax
     447:	48 8b 40 20          	mov    0x20(%rax),%rax
     44b:	8b 55 fc             	mov    -0x4(%rbp),%edx
     44e:	48 63 d2             	movslq %edx,%rdx
     451:	48 c1 e2 03          	shl    $0x3,%rdx
     455:	48 01 d0             	add    %rdx,%rax
     458:	48 8b 00             	mov    (%rax),%rax
     45b:	48 8b 55 e0          	mov    -0x20(%rbp),%rdx
     45f:	48 89 d6             	mov    %rdx,%rsi
     462:	48 89 c7             	mov    %rax,%rdi
     465:	e8 00 00 00 00       	call   46a <buscaPacientePorCPF+0x44>
     46a:	85 c0                	test   %eax,%eax
     46c:	74 05                	je     473 <buscaPacientePorCPF+0x4d>
     46e:	8b 45 fc             	mov    -0x4(%rbp),%eax
     471:	eb 15                	jmp    488 <buscaPacientePorCPF+0x62>
     473:	83 45 fc 01          	addl   $0x1,-0x4(%rbp)
     477:	48 8b 45 e8          	mov    -0x18(%rbp),%rax
     47b:	8b 40 28             	mov    0x28(%rax),%eax
     47e:	39 45 fc             	cmp    %eax,-0x4(%rbp)
     481:	7c c0                	jl     443 <buscaPacientePorCPF+0x1d>
     483:	b8 ff ff ff ff       	mov    $0xffffffff,%eax
     488:	c9                   	leave  
     489:	c3                   	ret    

000000000000048a <buscaPacientePorNome>:
     48a:	f3 0f 1e fa          	endbr64 
     48e:	55                   	push   %rbp
     48f:	48 89 e5             	mov    %rsp,%rbp
     492:	53                   	push   %rbx
     493:	48 83 ec 48          	sub    $0x48,%rsp
     497:	48 89 7d c8          	mov    %rdi,-0x38(%rbp)
     49b:	48 89 75 c0          	mov    %rsi,-0x40(%rbp)
     49f:	48 89 55 b8          	mov    %rdx,-0x48(%rbp)
     4a3:	c7 45 d8 00 00 00 00 	movl   $0x0,-0x28(%rbp)
     4aa:	48 c7 45 e0 00 00 00 	movq   $0x0,-0x20(%rbp)
     4b1:	00 
     4b2:	c7 45 dc 00 00 00 00 	movl   $0x0,-0x24(%rbp)
     4b9:	e9 89 00 00 00       	jmp    547 <buscaPacientePorNome+0xbd>
     4be:	48 8b 45 c8          	mov    -0x38(%rbp),%rax
     4c2:	48 8b 40 20          	mov    0x20(%rax),%rax
     4c6:	8b 55 dc             	mov    -0x24(%rbp),%edx
     4c9:	48 63 d2             	movslq %edx,%rdx
     4cc:	48 c1 e2 03          	shl    $0x3,%rdx
     4d0:	48 01 d0             	add    %rdx,%rax
     4d3:	48 8b 00             	mov    (%rax),%rax
     4d6:	48 89 45 e8          	mov    %rax,-0x18(%rbp)
     4da:	48 8b 45 e8          	mov    -0x18(%rbp),%rax
     4de:	48 89 c7             	mov    %rax,%rdi
     4e1:	e8 00 00 00 00       	call   4e6 <buscaPacientePorNome+0x5c>
     4e6:	48 89 c2             	mov    %rax,%rdx
     4e9:	48 8b 45 c0          	mov    -0x40(%rbp),%rax
     4ed:	48 89 d6             	mov    %rdx,%rsi
     4f0:	48 89 c7             	mov    %rax,%rdi
     4f3:	e8 00 00 00 00       	call   4f8 <buscaPacientePorNome+0x6e>
     4f8:	85 c0                	test   %eax,%eax
     4fa:	75 47                	jne    543 <buscaPacientePorNome+0xb9>
     4fc:	83 45 d8 01          	addl   $0x1,-0x28(%rbp)
     500:	8b 45 d8             	mov    -0x28(%rbp),%eax
     503:	48 98                	cltq   
     505:	48 8d 14 85 00 00 00 	lea    0x0(,%rax,4),%rdx
     50c:	00 
     50d:	48 8b 45 e0          	mov    -0x20(%rbp),%rax
     511:	48 89 d6             	mov    %rdx,%rsi
     514:	48 89 c7             	mov    %rax,%rdi
     517:	e8 00 00 00 00       	call   51c <buscaPacientePorNome+0x92>
     51c:	48 89 45 e0          	mov    %rax,-0x20(%rbp)
     520:	8b 45 d8             	mov    -0x28(%rbp),%eax
     523:	48 98                	cltq   
     525:	48 c1 e0 02          	shl    $0x2,%rax
     529:	48 8d 50 fc          	lea    -0x4(%rax),%rdx
     52d:	48 8b 45 e0          	mov    -0x20(%rbp),%rax
     531:	48 8d 1c 02          	lea    (%rdx,%rax,1),%rbx
     535:	48 8b 45 e8          	mov    -0x18(%rbp),%rax
     539:	48 89 c7             	mov    %rax,%rdi
     53c:	e8 00 00 00 00       	call   541 <buscaPacientePorNome+0xb7>
     541:	89 03                	mov    %eax,(%rbx)
     543:	83 45 dc 01          	addl   $0x1,-0x24(%rbp)
     547:	48 8b 45 c8          	mov    -0x38(%rbp),%rax
     54b:	8b 40 28             	mov    0x28(%rax),%eax
     54e:	39 45 dc             	cmp    %eax,-0x24(%rbp)
     551:	0f 8c 67 ff ff ff    	jl     4be <buscaPacientePorNome+0x34>
     557:	48 8b 45 b8          	mov    -0x48(%rbp),%rax
     55b:	8b 55 d8             	mov    -0x28(%rbp),%edx
     55e:	89 10                	mov    %edx,(%rax)
     560:	48 8b 45 e0          	mov    -0x20(%rbp),%rax
     564:	48 83 c4 48          	add    $0x48,%rsp
     568:	5b                   	pop    %rbx
     569:	5d                   	pop    %rbp
     56a:	c3                   	ret    

000000000000056b <desalocaDadosSade>:
     56b:	f3 0f 1e fa          	endbr64 
     56f:	55                   	push   %rbp
     570:	48 89 e5             	mov    %rsp,%rbp
     573:	48 83 ec 30          	sub    $0x30,%rsp
     577:	48 89 7d d8          	mov    %rdi,-0x28(%rbp)
     57b:	c7 45 ec 00 00 00 00 	movl   $0x0,-0x14(%rbp)
     582:	eb 23                	jmp    5a7 <desalocaDadosSade+0x3c>
     584:	48 8b 45 d8          	mov    -0x28(%rbp),%rax
     588:	48 8b 00             	mov    (%rax),%rax
     58b:	8b 55 ec             	mov    -0x14(%rbp),%edx
     58e:	48 63 d2             	movslq %edx,%rdx
     591:	48 c1 e2 03          	shl    $0x3,%rdx
     595:	48 01 d0             	add    %rdx,%rax
     598:	48 8b 00             	mov    (%rax),%rax
     59b:	48 89 c7             	mov    %rax,%rdi
     59e:	e8 00 00 00 00       	call   5a3 <desalocaDadosSade+0x38>
     5a3:	83 45 ec 01          	addl   $0x1,-0x14(%rbp)
     5a7:	48 8b 45 d8          	mov    -0x28(%rbp),%rax
     5ab:	8b 40 08             	mov    0x8(%rax),%eax
     5ae:	39 45 ec             	cmp    %eax,-0x14(%rbp)
     5b1:	7c d1                	jl     584 <desalocaDadosSade+0x19>
     5b3:	48 8b 45 d8          	mov    -0x28(%rbp),%rax
     5b7:	48 8b 00             	mov    (%rax),%rax
     5ba:	48 89 c7             	mov    %rax,%rdi
     5bd:	e8 00 00 00 00       	call   5c2 <desalocaDadosSade+0x57>
     5c2:	c7 45 f0 00 00 00 00 	movl   $0x0,-0x10(%rbp)
     5c9:	eb 24                	jmp    5ef <desalocaDadosSade+0x84>
     5cb:	48 8b 45 d8          	mov    -0x28(%rbp),%rax
     5cf:	48 8b 40 10          	mov    0x10(%rax),%rax
     5d3:	8b 55 f0             	mov    -0x10(%rbp),%edx
     5d6:	48 63 d2             	movslq %edx,%rdx
     5d9:	48 c1 e2 03          	shl    $0x3,%rdx
     5dd:	48 01 d0             	add    %rdx,%rax
     5e0:	48 8b 00             	mov    (%rax),%rax
     5e3:	48 89 c7             	mov    %rax,%rdi
     5e6:	e8 00 00 00 00       	call   5eb <desalocaDadosSade+0x80>
     5eb:	83 45 f0 01          	addl   $0x1,-0x10(%rbp)
     5ef:	48 8b 45 d8          	mov    -0x28(%rbp),%rax
     5f3:	8b 40 18             	mov    0x18(%rax),%eax
     5f6:	39 45 f0             	cmp    %eax,-0x10(%rbp)
     5f9:	7c d0                	jl     5cb <desalocaDadosSade+0x60>
     5fb:	48 8b 45 d8          	mov    -0x28(%rbp),%rax
     5ff:	48 8b 40 10          	mov    0x10(%rax),%rax
     603:	48 89 c7             	mov    %rax,%rdi
     606:	e8 00 00 00 00       	call   60b <desalocaDadosSade+0xa0>
     60b:	c7 45 f4 00 00 00 00 	movl   $0x0,-0xc(%rbp)
     612:	eb 24                	jmp    638 <desalocaDadosSade+0xcd>
     614:	48 8b 45 d8          	mov    -0x28(%rbp),%rax
     618:	48 8b 40 20          	mov    0x20(%rax),%rax
     61c:	8b 55 f4             	mov    -0xc(%rbp),%edx
     61f:	48 63 d2             	movslq %edx,%rdx
     622:	48 c1 e2 03          	shl    $0x3,%rdx
     626:	48 01 d0             	add    %rdx,%rax
     629:	48 8b 00             	mov    (%rax),%rax
     62c:	48 89 c7             	mov    %rax,%rdi
     62f:	e8 00 00 00 00       	call   634 <desalocaDadosSade+0xc9>
     634:	83 45 f4 01          	addl   $0x1,-0xc(%rbp)
     638:	48 8b 45 d8          	mov    -0x28(%rbp),%rax
     63c:	8b 40 28             	mov    0x28(%rax),%eax
     63f:	39 45 f4             	cmp    %eax,-0xc(%rbp)
     642:	7c d0                	jl     614 <desalocaDadosSade+0xa9>
     644:	48 8b 45 d8          	mov    -0x28(%rbp),%rax
     648:	48 8b 40 20          	mov    0x20(%rax),%rax
     64c:	48 89 c7             	mov    %rax,%rdi
     64f:	e8 00 00 00 00       	call   654 <desalocaDadosSade+0xe9>
     654:	c7 45 f8 00 00 00 00 	movl   $0x0,-0x8(%rbp)
     65b:	eb 24                	jmp    681 <desalocaDadosSade+0x116>
     65d:	48 8b 45 d8          	mov    -0x28(%rbp),%rax
     661:	48 8b 40 30          	mov    0x30(%rax),%rax
     665:	8b 55 f8             	mov    -0x8(%rbp),%edx
     668:	48 63 d2             	movslq %edx,%rdx
     66b:	48 c1 e2 03          	shl    $0x3,%rdx
     66f:	48 01 d0             	add    %rdx,%rax
     672:	48 8b 00             	mov    (%rax),%rax
     675:	48 89 c7             	mov    %rax,%rdi
     678:	e8 00 00 00 00       	call   67d <desalocaDadosSade+0x112>
     67d:	83 45 f8 01          	addl   $0x1,-0x8(%rbp)
     681:	48 8b 45 d8          	mov    -0x28(%rbp),%rax
     685:	8b 40 38             	mov    0x38(%rax),%eax
     688:	39 45 f8             	cmp    %eax,-0x8(%rbp)
     68b:	7c d0                	jl     65d <desalocaDadosSade+0xf2>
     68d:	48 8b 45 d8          	mov    -0x28(%rbp),%rax
     691:	48 8b 40 30          	mov    0x30(%rax),%rax
     695:	48 89 c7             	mov    %rax,%rdi
     698:	e8 00 00 00 00       	call   69d <desalocaDadosSade+0x132>
     69d:	c7 45 fc 00 00 00 00 	movl   $0x0,-0x4(%rbp)
     6a4:	eb 24                	jmp    6ca <desalocaDadosSade+0x15f>
     6a6:	48 8b 45 d8          	mov    -0x28(%rbp),%rax
     6aa:	48 8b 40 40          	mov    0x40(%rax),%rax
     6ae:	8b 55 fc             	mov    -0x4(%rbp),%edx
     6b1:	48 63 d2             	movslq %edx,%rdx
     6b4:	48 c1 e2 03          	shl    $0x3,%rdx
     6b8:	48 01 d0             	add    %rdx,%rax
     6bb:	48 8b 00             	mov    (%rax),%rax
     6be:	48 89 c7             	mov    %rax,%rdi
     6c1:	e8 00 00 00 00       	call   6c6 <desalocaDadosSade+0x15b>
     6c6:	83 45 fc 01          	addl   $0x1,-0x4(%rbp)
     6ca:	48 8b 45 d8          	mov    -0x28(%rbp),%rax
     6ce:	8b 40 48             	mov    0x48(%rax),%eax
     6d1:	39 45 fc             	cmp    %eax,-0x4(%rbp)
     6d4:	7c d0                	jl     6a6 <desalocaDadosSade+0x13b>
     6d6:	48 8b 45 d8          	mov    -0x28(%rbp),%rax
     6da:	48 8b 40 40          	mov    0x40(%rax),%rax
     6de:	48 89 c7             	mov    %rax,%rdi
     6e1:	e8 00 00 00 00       	call   6e6 <desalocaDadosSade+0x17b>
     6e6:	48 8b 45 d8          	mov    -0x28(%rbp),%rax
     6ea:	48 89 c7             	mov    %rax,%rdi
     6ed:	e8 00 00 00 00       	call   6f2 <desalocaDadosSade+0x187>
     6f2:	90                   	nop
     6f3:	c9                   	leave  
     6f4:	c3                   	ret    

00000000000006f5 <printDadosSade>:
     6f5:	f3 0f 1e fa          	endbr64 
     6f9:	55                   	push   %rbp
     6fa:	48 89 e5             	mov    %rsp,%rbp
     6fd:	48 83 ec 30          	sub    $0x30,%rsp
     701:	48 89 7d d8          	mov    %rdi,-0x28(%rbp)
     705:	48 8d 3d 00 00 00 00 	lea    0x0(%rip),%rdi        # 70c <printDadosSade+0x17>
     70c:	e8 00 00 00 00       	call   711 <printDadosSade+0x1c>
     711:	c7 45 ec 00 00 00 00 	movl   $0x0,-0x14(%rbp)
     718:	eb 2d                	jmp    747 <printDadosSade+0x52>
     71a:	48 8b 45 d8          	mov    -0x28(%rbp),%rax
     71e:	48 8b 00             	mov    (%rax),%rax
     721:	8b 55 ec             	mov    -0x14(%rbp),%edx
     724:	48 63 d2             	movslq %edx,%rdx
     727:	48 c1 e2 03          	shl    $0x3,%rdx
     72b:	48 01 d0             	add    %rdx,%rax
     72e:	48 8b 00             	mov    (%rax),%rax
     731:	48 89 c7             	mov    %rax,%rdi
     734:	e8 00 00 00 00       	call   739 <printDadosSade+0x44>
     739:	bf 0a 00 00 00       	mov    $0xa,%edi
     73e:	e8 00 00 00 00       	call   743 <printDadosSade+0x4e>
     743:	83 45 ec 01          	addl   $0x1,-0x14(%rbp)
     747:	48 8b 45 d8          	mov    -0x28(%rbp),%rax
     74b:	8b 40 08             	mov    0x8(%rax),%eax
     74e:	39 45 ec             	cmp    %eax,-0x14(%rbp)
     751:	7c c7                	jl     71a <printDadosSade+0x25>
     753:	48 8d 3d 00 00 00 00 	lea    0x0(%rip),%rdi        # 75a <printDadosSade+0x65>
     75a:	e8 00 00 00 00       	call   75f <printDadosSade+0x6a>
     75f:	48 8d 3d 00 00 00 00 	lea    0x0(%rip),%rdi        # 766 <printDadosSade+0x71>
     766:	e8 00 00 00 00       	call   76b <printDadosSade+0x76>
     76b:	c7 45 f0 00 00 00 00 	movl   $0x0,-0x10(%rbp)
     772:	eb 2e                	jmp    7a2 <printDadosSade+0xad>
     774:	48 8b 45 d8          	mov    -0x28(%rbp),%rax
     778:	48 8b 40 10          	mov    0x10(%rax),%rax
     77c:	8b 55 f0             	mov    -0x10(%rbp),%edx
     77f:	48 63 d2             	movslq %edx,%rdx
     782:	48 c1 e2 03          	shl    $0x3,%rdx
     786:	48 01 d0             	add    %rdx,%rax
     789:	48 8b 00             	mov    (%rax),%rax
     78c:	48 89 c7             	mov    %rax,%rdi
     78f:	e8 00 00 00 00       	call   794 <printDadosSade+0x9f>
     794:	bf 0a 00 00 00       	mov    $0xa,%edi
     799:	e8 00 00 00 00       	call   79e <printDadosSade+0xa9>
     79e:	83 45 f0 01          	addl   $0x1,-0x10(%rbp)
     7a2:	48 8b 45 d8          	mov    -0x28(%rbp),%rax
     7a6:	8b 40 18             	mov    0x18(%rax),%eax
     7a9:	39 45 f0             	cmp    %eax,-0x10(%rbp)
     7ac:	7c c6                	jl     774 <printDadosSade+0x7f>
     7ae:	48 8d 3d 00 00 00 00 	lea    0x0(%rip),%rdi        # 7b5 <printDadosSade+0xc0>
     7b5:	e8 00 00 00 00       	call   7ba <printDadosSade+0xc5>
     7ba:	48 8d 3d 00 00 00 00 	lea    0x0(%rip),%rdi        # 7c1 <printDadosSade+0xcc>
     7c1:	e8 00 00 00 00       	call   7c6 <printDadosSade+0xd1>
     7c6:	c7 45 f4 00 00 00 00 	movl   $0x0,-0xc(%rbp)
     7cd:	eb 2e                	jmp    7fd <printDadosSade+0x108>
     7cf:	48 8b 45 d8          	mov    -0x28(%rbp),%rax
     7d3:	48 8b 40 20          	mov    0x20(%rax),%rax
     7d7:	8b 55 f4             	mov    -0xc(%rbp),%edx
     7da:	48 63 d2             	movslq %edx,%rdx
     7dd:	48 c1 e2 03          	shl    $0x3,%rdx
     7e1:	48 01 d0             	add    %rdx,%rax
     7e4:	48 8b 00             	mov    (%rax),%rax
     7e7:	48 89 c7             	mov    %rax,%rdi
     7ea:	e8 00 00 00 00       	call   7ef <printDadosSade+0xfa>
     7ef:	bf 0a 00 00 00       	mov    $0xa,%edi
     7f4:	e8 00 00 00 00       	call   7f9 <printDadosSade+0x104>
     7f9:	83 45 f4 01          	addl   $0x1,-0xc(%rbp)
     7fd:	48 8b 45 d8          	mov    -0x28(%rbp),%rax
     801:	8b 40 28             	mov    0x28(%rax),%eax
     804:	39 45 f4             	cmp    %eax,-0xc(%rbp)
     807:	7c c6                	jl     7cf <printDadosSade+0xda>
     809:	48 8d 3d 00 00 00 00 	lea    0x0(%rip),%rdi        # 810 <printDadosSade+0x11b>
     810:	e8 00 00 00 00       	call   815 <printDadosSade+0x120>
     815:	48 8d 3d 00 00 00 00 	lea    0x0(%rip),%rdi        # 81c <printDadosSade+0x127>
     81c:	e8 00 00 00 00       	call   821 <printDadosSade+0x12c>
     821:	c7 45 f8 00 00 00 00 	movl   $0x0,-0x8(%rbp)
     828:	eb 2e                	jmp    858 <printDadosSade+0x163>
     82a:	48 8b 45 d8          	mov    -0x28(%rbp),%rax
     82e:	48 8b 40 30          	mov    0x30(%rax),%rax
     832:	8b 55 f8             	mov    -0x8(%rbp),%edx
     835:	48 63 d2             	movslq %edx,%rdx
     838:	48 c1 e2 03          	shl    $0x3,%rdx
     83c:	48 01 d0             	add    %rdx,%rax
     83f:	48 8b 00             	mov    (%rax),%rax
     842:	48 89 c7             	mov    %rax,%rdi
     845:	e8 00 00 00 00       	call   84a <printDadosSade+0x155>
     84a:	bf 0a 00 00 00       	mov    $0xa,%edi
     84f:	e8 00 00 00 00       	call   854 <printDadosSade+0x15f>
     854:	83 45 f8 01          	addl   $0x1,-0x8(%rbp)
     858:	48 8b 45 d8          	mov    -0x28(%rbp),%rax
     85c:	8b 40 38             	mov    0x38(%rax),%eax
     85f:	39 45 f8             	cmp    %eax,-0x8(%rbp)
     862:	7c c6                	jl     82a <printDadosSade+0x135>
     864:	48 8d 3d 00 00 00 00 	lea    0x0(%rip),%rdi        # 86b <printDadosSade+0x176>
     86b:	e8 00 00 00 00       	call   870 <printDadosSade+0x17b>
     870:	48 8d 3d 00 00 00 00 	lea    0x0(%rip),%rdi        # 877 <printDadosSade+0x182>
     877:	e8 00 00 00 00       	call   87c <printDadosSade+0x187>
     87c:	c7 45 fc 00 00 00 00 	movl   $0x0,-0x4(%rbp)
     883:	eb 2e                	jmp    8b3 <printDadosSade+0x1be>
     885:	48 8b 45 d8          	mov    -0x28(%rbp),%rax
     889:	48 8b 40 40          	mov    0x40(%rax),%rax
     88d:	8b 55 fc             	mov    -0x4(%rbp),%edx
     890:	48 63 d2             	movslq %edx,%rdx
     893:	48 c1 e2 03          	shl    $0x3,%rdx
     897:	48 01 d0             	add    %rdx,%rax
     89a:	48 8b 00             	mov    (%rax),%rax
     89d:	48 89 c7             	mov    %rax,%rdi
     8a0:	e8 00 00 00 00       	call   8a5 <printDadosSade+0x1b0>
     8a5:	bf 0a 00 00 00       	mov    $0xa,%edi
     8aa:	e8 00 00 00 00       	call   8af <printDadosSade+0x1ba>
     8af:	83 45 fc 01          	addl   $0x1,-0x4(%rbp)
     8b3:	48 8b 45 d8          	mov    -0x28(%rbp),%rax
     8b7:	8b 40 48             	mov    0x48(%rax),%eax
     8ba:	39 45 fc             	cmp    %eax,-0x4(%rbp)
     8bd:	7c c6                	jl     885 <printDadosSade+0x190>
     8bf:	48 8d 3d 00 00 00 00 	lea    0x0(%rip),%rdi        # 8c6 <printDadosSade+0x1d1>
     8c6:	e8 00 00 00 00       	call   8cb <printDadosSade+0x1d6>
     8cb:	90                   	nop
     8cc:	c9                   	leave  
     8cd:	c3                   	ret    

00000000000008ce <obtemPathBD>:
     8ce:	f3 0f 1e fa          	endbr64 
     8d2:	55                   	push   %rbp
     8d3:	48 89 e5             	mov    %rsp,%rbp
     8d6:	48 83 ec 20          	sub    $0x20,%rsp
     8da:	89 7d fc             	mov    %edi,-0x4(%rbp)
     8dd:	48 89 75 f0          	mov    %rsi,-0x10(%rbp)
     8e1:	48 89 55 e8          	mov    %rdx,-0x18(%rbp)
     8e5:	83 7d fc 00          	cmpl   $0x0,-0x4(%rbp)
     8e9:	75 5c                	jne    947 <obtemPathBD+0x79>
     8eb:	48 8b 55 f0          	mov    -0x10(%rbp),%rdx
     8ef:	48 8b 45 e8          	mov    -0x18(%rbp),%rax
     8f3:	48 89 d6             	mov    %rdx,%rsi
     8f6:	48 89 c7             	mov    %rax,%rdi
     8f9:	e8 00 00 00 00       	call   8fe <obtemPathBD+0x30>
     8fe:	48 8b 45 e8          	mov    -0x18(%rbp),%rax
     902:	48 c7 c1 ff ff ff ff 	mov    $0xffffffffffffffff,%rcx
     909:	48 89 c2             	mov    %rax,%rdx
     90c:	b8 00 00 00 00       	mov    $0x0,%eax
     911:	48 89 d7             	mov    %rdx,%rdi
     914:	f2 ae                	repnz scas %es:(%rdi),%al
     916:	48 89 c8             	mov    %rcx,%rax
     919:	48 f7 d0             	not    %rax
     91c:	48 8d 50 ff          	lea    -0x1(%rax),%rdx
     920:	48 8b 45 e8          	mov    -0x18(%rbp),%rax
     924:	48 01 d0             	add    %rdx,%rax
     927:	48 be 73 65 63 72 65 	movabs $0x7261746572636573,%rsi
     92e:	74 61 72 
     931:	48 bf 69 6f 73 2e 62 	movabs $0x6e69622e736f69,%rdi
     938:	69 6e 00 
     93b:	48 89 30             	mov    %rsi,(%rax)
     93e:	48 89 78 08          	mov    %rdi,0x8(%rax)
     942:	e9 f7 01 00 00       	jmp    b3e <obtemPathBD+0x270>
     947:	83 7d fc 01          	cmpl   $0x1,-0x4(%rbp)
     94b:	75 55                	jne    9a2 <obtemPathBD+0xd4>
     94d:	48 8b 55 f0          	mov    -0x10(%rbp),%rdx
     951:	48 8b 45 e8          	mov    -0x18(%rbp),%rax
     955:	48 89 d6             	mov    %rdx,%rsi
     958:	48 89 c7             	mov    %rax,%rdi
     95b:	e8 00 00 00 00       	call   960 <obtemPathBD+0x92>
     960:	48 8b 45 e8          	mov    -0x18(%rbp),%rax
     964:	48 c7 c1 ff ff ff ff 	mov    $0xffffffffffffffff,%rcx
     96b:	48 89 c2             	mov    %rax,%rdx
     96e:	b8 00 00 00 00       	mov    $0x0,%eax
     973:	48 89 d7             	mov    %rdx,%rdi
     976:	f2 ae                	repnz scas %es:(%rdi),%al
     978:	48 89 c8             	mov    %rcx,%rax
     97b:	48 f7 d0             	not    %rax
     97e:	48 8d 50 ff          	lea    -0x1(%rax),%rdx
     982:	48 8b 45 e8          	mov    -0x18(%rbp),%rax
     986:	48 01 d0             	add    %rdx,%rax
     989:	48 be 6d 65 64 69 63 	movabs $0x2e736f636964656d,%rsi
     990:	6f 73 2e 
     993:	48 89 30             	mov    %rsi,(%rax)
     996:	c7 40 08 62 69 6e 00 	movl   $0x6e6962,0x8(%rax)
     99d:	e9 9c 01 00 00       	jmp    b3e <obtemPathBD+0x270>
     9a2:	83 7d fc 02          	cmpl   $0x2,-0x4(%rbp)
     9a6:	75 5b                	jne    a03 <obtemPathBD+0x135>
     9a8:	48 8b 55 f0          	mov    -0x10(%rbp),%rdx
     9ac:	48 8b 45 e8          	mov    -0x18(%rbp),%rax
     9b0:	48 89 d6             	mov    %rdx,%rsi
     9b3:	48 89 c7             	mov    %rax,%rdi
     9b6:	e8 00 00 00 00       	call   9bb <obtemPathBD+0xed>
     9bb:	48 8b 45 e8          	mov    -0x18(%rbp),%rax
     9bf:	48 c7 c1 ff ff ff ff 	mov    $0xffffffffffffffff,%rcx
     9c6:	48 89 c2             	mov    %rax,%rdx
     9c9:	b8 00 00 00 00       	mov    $0x0,%eax
     9ce:	48 89 d7             	mov    %rdx,%rdi
     9d1:	f2 ae                	repnz scas %es:(%rdi),%al
     9d3:	48 89 c8             	mov    %rcx,%rax
     9d6:	48 f7 d0             	not    %rax
     9d9:	48 8d 50 ff          	lea    -0x1(%rax),%rdx
     9dd:	48 8b 45 e8          	mov    -0x18(%rbp),%rax
     9e1:	48 01 d0             	add    %rdx,%rax
     9e4:	48 be 70 61 63 69 65 	movabs $0x65746e6569636170,%rsi
     9eb:	6e 74 65 
     9ee:	48 89 30             	mov    %rsi,(%rax)
     9f1:	c7 40 08 73 2e 62 69 	movl   $0x69622e73,0x8(%rax)
     9f8:	66 c7 40 0c 6e 00    	movw   $0x6e,0xc(%rax)
     9fe:	e9 3b 01 00 00       	jmp    b3e <obtemPathBD+0x270>
     a03:	83 7d fc 04          	cmpl   $0x4,-0x4(%rbp)
     a07:	75 58                	jne    a61 <obtemPathBD+0x193>
     a09:	48 8b 55 f0          	mov    -0x10(%rbp),%rdx
     a0d:	48 8b 45 e8          	mov    -0x18(%rbp),%rax
     a11:	48 89 d6             	mov    %rdx,%rsi
     a14:	48 89 c7             	mov    %rax,%rdi
     a17:	e8 00 00 00 00       	call   a1c <obtemPathBD+0x14e>
     a1c:	48 8b 45 e8          	mov    -0x18(%rbp),%rax
     a20:	48 c7 c1 ff ff ff ff 	mov    $0xffffffffffffffff,%rcx
     a27:	48 89 c2             	mov    %rax,%rdx
     a2a:	b8 00 00 00 00       	mov    $0x0,%eax
     a2f:	48 89 d7             	mov    %rdx,%rdi
     a32:	f2 ae                	repnz scas %es:(%rdi),%al
     a34:	48 89 c8             	mov    %rcx,%rax
     a37:	48 f7 d0             	not    %rax
     a3a:	48 8d 50 ff          	lea    -0x1(%rax),%rdx
     a3e:	48 8b 45 e8          	mov    -0x18(%rbp),%rax
     a42:	48 01 d0             	add    %rdx,%rax
     a45:	48 be 6c 65 73 6f 65 	movabs $0x622e73656f73656c,%rsi
     a4c:	73 2e 62 
     a4f:	48 89 30             	mov    %rsi,(%rax)
     a52:	66 c7 40 08 69 6e    	movw   $0x6e69,0x8(%rax)
     a58:	c6 40 0a 00          	movb   $0x0,0xa(%rax)
     a5c:	e9 dd 00 00 00       	jmp    b3e <obtemPathBD+0x270>
     a61:	83 7d fc 03          	cmpl   $0x3,-0x4(%rbp)
     a65:	75 58                	jne    abf <obtemPathBD+0x1f1>
     a67:	48 8b 55 f0          	mov    -0x10(%rbp),%rdx
     a6b:	48 8b 45 e8          	mov    -0x18(%rbp),%rax
     a6f:	48 89 d6             	mov    %rdx,%rsi
     a72:	48 89 c7             	mov    %rax,%rdi
     a75:	e8 00 00 00 00       	call   a7a <obtemPathBD+0x1ac>
     a7a:	48 8b 45 e8          	mov    -0x18(%rbp),%rax
     a7e:	48 c7 c1 ff ff ff ff 	mov    $0xffffffffffffffff,%rcx
     a85:	48 89 c2             	mov    %rax,%rdx
     a88:	b8 00 00 00 00       	mov    $0x0,%eax
     a8d:	48 89 d7             	mov    %rdx,%rdi
     a90:	f2 ae                	repnz scas %es:(%rdi),%al
     a92:	48 89 c8             	mov    %rcx,%rax
     a95:	48 f7 d0             	not    %rax
     a98:	48 8d 50 ff          	lea    -0x1(%rax),%rdx
     a9c:	48 8b 45 e8          	mov    -0x18(%rbp),%rax
     aa0:	48 01 d0             	add    %rdx,%rax
     aa3:	48 be 63 6f 6e 73 75 	movabs $0x61746c75736e6f63,%rsi
     aaa:	6c 74 61 
     aad:	48 89 30             	mov    %rsi,(%rax)
     ab0:	c7 40 08 73 2e 62 69 	movl   $0x69622e73,0x8(%rax)
     ab7:	66 c7 40 0c 6e 00    	movw   $0x6e,0xc(%rax)
     abd:	eb 7f                	jmp    b3e <obtemPathBD+0x270>
     abf:	83 7d fc 05          	cmpl   $0x5,-0x4(%rbp)
     ac3:	75 63                	jne    b28 <obtemPathBD+0x25a>
     ac5:	48 8b 55 f0          	mov    -0x10(%rbp),%rdx
     ac9:	48 8b 45 e8          	mov    -0x18(%rbp),%rax
     acd:	48 89 d6             	mov    %rdx,%rsi
     ad0:	48 89 c7             	mov    %rax,%rdi
     ad3:	e8 00 00 00 00       	call   ad8 <obtemPathBD+0x20a>
     ad8:	48 8b 45 e8          	mov    -0x18(%rbp),%rax
     adc:	48 c7 c1 ff ff ff ff 	mov    $0xffffffffffffffff,%rcx
     ae3:	48 89 c2             	mov    %rax,%rdx
     ae6:	b8 00 00 00 00       	mov    $0x0,%eax
     aeb:	48 89 d7             	mov    %rdx,%rdi
     aee:	f2 ae                	repnz scas %es:(%rdi),%al
     af0:	48 89 c8             	mov    %rcx,%rax
     af3:	48 f7 d0             	not    %rax
     af6:	48 8d 50 ff          	lea    -0x1(%rax),%rdx
     afa:	48 8b 45 e8          	mov    -0x18(%rbp),%rax
     afe:	48 01 d0             	add    %rdx,%rax
     b01:	48 be 66 69 6c 61 5f 	movabs $0x706d695f616c6966,%rsi
     b08:	69 6d 70 
     b0b:	48 bf 72 65 73 73 61 	movabs $0x622e6f6173736572,%rdi
     b12:	6f 2e 62 
     b15:	48 89 30             	mov    %rsi,(%rax)
     b18:	48 89 78 08          	mov    %rdi,0x8(%rax)
     b1c:	66 c7 40 10 69 6e    	movw   $0x6e69,0x10(%rax)
     b22:	c6 40 12 00          	movb   $0x0,0x12(%rax)
     b26:	eb 16                	jmp    b3e <obtemPathBD+0x270>
     b28:	48 8d 3d 00 00 00 00 	lea    0x0(%rip),%rdi        # b2f <obtemPathBD+0x261>
     b2f:	e8 00 00 00 00       	call   b34 <obtemPathBD+0x266>
     b34:	bf 01 00 00 00       	mov    $0x1,%edi
     b39:	e8 00 00 00 00       	call   b3e <obtemPathBD+0x270>
     b3e:	c9                   	leave  
     b3f:	c3                   	ret    

0000000000000b40 <salvarColecaoBD>:
     b40:	f3 0f 1e fa          	endbr64 
     b44:	55                   	push   %rbp
     b45:	48 89 e5             	mov    %rsp,%rbp
     b48:	48 81 ec 30 04 00 00 	sub    $0x430,%rsp
     b4f:	89 bd ec fb ff ff    	mov    %edi,-0x414(%rbp)
     b55:	48 89 b5 e0 fb ff ff 	mov    %rsi,-0x420(%rbp)
     b5c:	48 89 95 d8 fb ff ff 	mov    %rdx,-0x428(%rbp)
     b63:	64 48 8b 04 25 28 00 	mov    %fs:0x28,%rax
     b6a:	00 00 
     b6c:	48 89 45 f8          	mov    %rax,-0x8(%rbp)
     b70:	31 c0                	xor    %eax,%eax
     b72:	48 8d 95 10 fc ff ff 	lea    -0x3f0(%rbp),%rdx
     b79:	48 8b 8d e0 fb ff ff 	mov    -0x420(%rbp),%rcx
     b80:	8b 85 ec fb ff ff    	mov    -0x414(%rbp),%eax
     b86:	48 89 ce             	mov    %rcx,%rsi
     b89:	89 c7                	mov    %eax,%edi
     b8b:	e8 00 00 00 00       	call   b90 <salvarColecaoBD+0x50>
     b90:	48 8d 85 10 fc ff ff 	lea    -0x3f0(%rbp),%rax
     b97:	48 8d 35 00 00 00 00 	lea    0x0(%rip),%rsi        # b9e <salvarColecaoBD+0x5e>
     b9e:	48 89 c7             	mov    %rax,%rdi
     ba1:	e8 00 00 00 00       	call   ba6 <salvarColecaoBD+0x66>
     ba6:	48 89 85 08 fc ff ff 	mov    %rax,-0x3f8(%rbp)
     bad:	83 bd ec fb ff ff 00 	cmpl   $0x0,-0x414(%rbp)
     bb4:	75 7d                	jne    c33 <salvarColecaoBD+0xf3>
     bb6:	48 8b 85 d8 fb ff ff 	mov    -0x428(%rbp),%rax
     bbd:	48 8d 78 08          	lea    0x8(%rax),%rdi
     bc1:	48 8b 85 08 fc ff ff 	mov    -0x3f8(%rbp),%rax
     bc8:	48 89 c1             	mov    %rax,%rcx
     bcb:	ba 01 00 00 00       	mov    $0x1,%edx
     bd0:	be 04 00 00 00       	mov    $0x4,%esi
     bd5:	e8 00 00 00 00       	call   bda <salvarColecaoBD+0x9a>
     bda:	c7 85 f4 fb ff ff 00 	movl   $0x0,-0x40c(%rbp)
     be1:	00 00 00 
     be4:	eb 36                	jmp    c1c <salvarColecaoBD+0xdc>
     be6:	48 8b 85 d8 fb ff ff 	mov    -0x428(%rbp),%rax
     bed:	48 8b 00             	mov    (%rax),%rax
     bf0:	8b 95 f4 fb ff ff    	mov    -0x40c(%rbp),%edx
     bf6:	48 63 d2             	movslq %edx,%rdx
     bf9:	48 c1 e2 03          	shl    $0x3,%rdx
     bfd:	48 01 d0             	add    %rdx,%rax
     c00:	48 8b 00             	mov    (%rax),%rax
     c03:	48 8b 95 08 fc ff ff 	mov    -0x3f8(%rbp),%rdx
     c0a:	48 89 d6             	mov    %rdx,%rsi
     c0d:	48 89 c7             	mov    %rax,%rdi
     c10:	e8 00 00 00 00       	call   c15 <salvarColecaoBD+0xd5>
     c15:	83 85 f4 fb ff ff 01 	addl   $0x1,-0x40c(%rbp)
     c1c:	48 8b 85 d8 fb ff ff 	mov    -0x428(%rbp),%rax
     c23:	8b 40 08             	mov    0x8(%rax),%eax
     c26:	39 85 f4 fb ff ff    	cmp    %eax,-0x40c(%rbp)
     c2c:	7c b8                	jl     be6 <salvarColecaoBD+0xa6>
     c2e:	e9 2f 02 00 00       	jmp    e62 <salvarColecaoBD+0x322>
     c33:	83 bd ec fb ff ff 01 	cmpl   $0x1,-0x414(%rbp)
     c3a:	75 7e                	jne    cba <salvarColecaoBD+0x17a>
     c3c:	48 8b 85 d8 fb ff ff 	mov    -0x428(%rbp),%rax
     c43:	48 8d 78 18          	lea    0x18(%rax),%rdi
     c47:	48 8b 85 08 fc ff ff 	mov    -0x3f8(%rbp),%rax
     c4e:	48 89 c1             	mov    %rax,%rcx
     c51:	ba 01 00 00 00       	mov    $0x1,%edx
     c56:	be 04 00 00 00       	mov    $0x4,%esi
     c5b:	e8 00 00 00 00       	call   c60 <salvarColecaoBD+0x120>
     c60:	c7 85 f8 fb ff ff 00 	movl   $0x0,-0x408(%rbp)
     c67:	00 00 00 
     c6a:	eb 37                	jmp    ca3 <salvarColecaoBD+0x163>
     c6c:	48 8b 85 d8 fb ff ff 	mov    -0x428(%rbp),%rax
     c73:	48 8b 40 10          	mov    0x10(%rax),%rax
     c77:	8b 95 f8 fb ff ff    	mov    -0x408(%rbp),%edx
     c7d:	48 63 d2             	movslq %edx,%rdx
     c80:	48 c1 e2 03          	shl    $0x3,%rdx
     c84:	48 01 d0             	add    %rdx,%rax
     c87:	48 8b 00             	mov    (%rax),%rax
     c8a:	48 8b 95 08 fc ff ff 	mov    -0x3f8(%rbp),%rdx
     c91:	48 89 d6             	mov    %rdx,%rsi
     c94:	48 89 c7             	mov    %rax,%rdi
     c97:	e8 00 00 00 00       	call   c9c <salvarColecaoBD+0x15c>
     c9c:	83 85 f8 fb ff ff 01 	addl   $0x1,-0x408(%rbp)
     ca3:	48 8b 85 d8 fb ff ff 	mov    -0x428(%rbp),%rax
     caa:	8b 40 18             	mov    0x18(%rax),%eax
     cad:	39 85 f8 fb ff ff    	cmp    %eax,-0x408(%rbp)
     cb3:	7c b7                	jl     c6c <salvarColecaoBD+0x12c>
     cb5:	e9 a8 01 00 00       	jmp    e62 <salvarColecaoBD+0x322>
     cba:	83 bd ec fb ff ff 02 	cmpl   $0x2,-0x414(%rbp)
     cc1:	75 7e                	jne    d41 <salvarColecaoBD+0x201>
     cc3:	48 8b 85 d8 fb ff ff 	mov    -0x428(%rbp),%rax
     cca:	48 8d 78 28          	lea    0x28(%rax),%rdi
     cce:	48 8b 85 08 fc ff ff 	mov    -0x3f8(%rbp),%rax
     cd5:	48 89 c1             	mov    %rax,%rcx
     cd8:	ba 01 00 00 00       	mov    $0x1,%edx
     cdd:	be 04 00 00 00       	mov    $0x4,%esi
     ce2:	e8 00 00 00 00       	call   ce7 <salvarColecaoBD+0x1a7>
     ce7:	c7 85 fc fb ff ff 00 	movl   $0x0,-0x404(%rbp)
     cee:	00 00 00 
     cf1:	eb 37                	jmp    d2a <salvarColecaoBD+0x1ea>
     cf3:	48 8b 85 d8 fb ff ff 	mov    -0x428(%rbp),%rax
     cfa:	48 8b 40 20          	mov    0x20(%rax),%rax
     cfe:	8b 95 fc fb ff ff    	mov    -0x404(%rbp),%edx
     d04:	48 63 d2             	movslq %edx,%rdx
     d07:	48 c1 e2 03          	shl    $0x3,%rdx
     d0b:	48 01 d0             	add    %rdx,%rax
     d0e:	48 8b 00             	mov    (%rax),%rax
     d11:	48 8b 95 08 fc ff ff 	mov    -0x3f8(%rbp),%rdx
     d18:	48 89 d6             	mov    %rdx,%rsi
     d1b:	48 89 c7             	mov    %rax,%rdi
     d1e:	e8 00 00 00 00       	call   d23 <salvarColecaoBD+0x1e3>
     d23:	83 85 fc fb ff ff 01 	addl   $0x1,-0x404(%rbp)
     d2a:	48 8b 85 d8 fb ff ff 	mov    -0x428(%rbp),%rax
     d31:	8b 40 28             	mov    0x28(%rax),%eax
     d34:	39 85 fc fb ff ff    	cmp    %eax,-0x404(%rbp)
     d3a:	7c b7                	jl     cf3 <salvarColecaoBD+0x1b3>
     d3c:	e9 21 01 00 00       	jmp    e62 <salvarColecaoBD+0x322>
     d41:	83 bd ec fb ff ff 04 	cmpl   $0x4,-0x414(%rbp)
     d48:	75 7e                	jne    dc8 <salvarColecaoBD+0x288>
     d4a:	48 8b 85 d8 fb ff ff 	mov    -0x428(%rbp),%rax
     d51:	48 8d 78 38          	lea    0x38(%rax),%rdi
     d55:	48 8b 85 08 fc ff ff 	mov    -0x3f8(%rbp),%rax
     d5c:	48 89 c1             	mov    %rax,%rcx
     d5f:	ba 01 00 00 00       	mov    $0x1,%edx
     d64:	be 04 00 00 00       	mov    $0x4,%esi
     d69:	e8 00 00 00 00       	call   d6e <salvarColecaoBD+0x22e>
     d6e:	c7 85 00 fc ff ff 00 	movl   $0x0,-0x400(%rbp)
     d75:	00 00 00 
     d78:	eb 37                	jmp    db1 <salvarColecaoBD+0x271>
     d7a:	48 8b 85 d8 fb ff ff 	mov    -0x428(%rbp),%rax
     d81:	48 8b 40 30          	mov    0x30(%rax),%rax
     d85:	8b 95 00 fc ff ff    	mov    -0x400(%rbp),%edx
     d8b:	48 63 d2             	movslq %edx,%rdx
     d8e:	48 c1 e2 03          	shl    $0x3,%rdx
     d92:	48 01 d0             	add    %rdx,%rax
     d95:	48 8b 00             	mov    (%rax),%rax
     d98:	48 8b 95 08 fc ff ff 	mov    -0x3f8(%rbp),%rdx
     d9f:	48 89 d6             	mov    %rdx,%rsi
     da2:	48 89 c7             	mov    %rax,%rdi
     da5:	e8 00 00 00 00       	call   daa <salvarColecaoBD+0x26a>
     daa:	83 85 00 fc ff ff 01 	addl   $0x1,-0x400(%rbp)
     db1:	48 8b 85 d8 fb ff ff 	mov    -0x428(%rbp),%rax
     db8:	8b 40 38             	mov    0x38(%rax),%eax
     dbb:	39 85 00 fc ff ff    	cmp    %eax,-0x400(%rbp)
     dc1:	7c b7                	jl     d7a <salvarColecaoBD+0x23a>
     dc3:	e9 9a 00 00 00       	jmp    e62 <salvarColecaoBD+0x322>
     dc8:	83 bd ec fb ff ff 03 	cmpl   $0x3,-0x414(%rbp)
     dcf:	75 7b                	jne    e4c <salvarColecaoBD+0x30c>
     dd1:	48 8b 85 d8 fb ff ff 	mov    -0x428(%rbp),%rax
     dd8:	48 8d 78 48          	lea    0x48(%rax),%rdi
     ddc:	48 8b 85 08 fc ff ff 	mov    -0x3f8(%rbp),%rax
     de3:	48 89 c1             	mov    %rax,%rcx
     de6:	ba 01 00 00 00       	mov    $0x1,%edx
     deb:	be 04 00 00 00       	mov    $0x4,%esi
     df0:	e8 00 00 00 00       	call   df5 <salvarColecaoBD+0x2b5>
     df5:	c7 85 04 fc ff ff 00 	movl   $0x0,-0x3fc(%rbp)
     dfc:	00 00 00 
     dff:	eb 37                	jmp    e38 <salvarColecaoBD+0x2f8>
     e01:	48 8b 85 d8 fb ff ff 	mov    -0x428(%rbp),%rax
     e08:	48 8b 40 40          	mov    0x40(%rax),%rax
     e0c:	8b 95 04 fc ff ff    	mov    -0x3fc(%rbp),%edx
     e12:	48 63 d2             	movslq %edx,%rdx
     e15:	48 c1 e2 03          	shl    $0x3,%rdx
     e19:	48 01 d0             	add    %rdx,%rax
     e1c:	48 8b 00             	mov    (%rax),%rax
     e1f:	48 8b 95 08 fc ff ff 	mov    -0x3f8(%rbp),%rdx
     e26:	48 89 d6             	mov    %rdx,%rsi
     e29:	48 89 c7             	mov    %rax,%rdi
     e2c:	e8 00 00 00 00       	call   e31 <salvarColecaoBD+0x2f1>
     e31:	83 85 04 fc ff ff 01 	addl   $0x1,-0x3fc(%rbp)
     e38:	48 8b 85 d8 fb ff ff 	mov    -0x428(%rbp),%rax
     e3f:	8b 40 48             	mov    0x48(%rax),%eax
     e42:	39 85 04 fc ff ff    	cmp    %eax,-0x3fc(%rbp)
     e48:	7c b7                	jl     e01 <salvarColecaoBD+0x2c1>
     e4a:	eb 16                	jmp    e62 <salvarColecaoBD+0x322>
     e4c:	48 8d 3d 00 00 00 00 	lea    0x0(%rip),%rdi        # e53 <salvarColecaoBD+0x313>
     e53:	e8 00 00 00 00       	call   e58 <salvarColecaoBD+0x318>
     e58:	bf 01 00 00 00       	mov    $0x1,%edi
     e5d:	e8 00 00 00 00       	call   e62 <salvarColecaoBD+0x322>
     e62:	48 8b 85 08 fc ff ff 	mov    -0x3f8(%rbp),%rax
     e69:	48 89 c7             	mov    %rax,%rdi
     e6c:	e8 00 00 00 00       	call   e71 <salvarColecaoBD+0x331>
     e71:	90                   	nop
     e72:	48 8b 45 f8          	mov    -0x8(%rbp),%rax
     e76:	64 48 33 04 25 28 00 	xor    %fs:0x28,%rax
     e7d:	00 00 
     e7f:	74 05                	je     e86 <salvarColecaoBD+0x346>
     e81:	e8 00 00 00 00       	call   e86 <salvarColecaoBD+0x346>
     e86:	c9                   	leave  
     e87:	c3                   	ret    

0000000000000e88 <carregarColecaoBD>:
     e88:	f3 0f 1e fa          	endbr64 
     e8c:	55                   	push   %rbp
     e8d:	48 89 e5             	mov    %rsp,%rbp
     e90:	48 81 ec 60 04 00 00 	sub    $0x460,%rsp
     e97:	89 bd bc fb ff ff    	mov    %edi,-0x444(%rbp)
     e9d:	48 89 b5 b0 fb ff ff 	mov    %rsi,-0x450(%rbp)
     ea4:	48 89 95 a8 fb ff ff 	mov    %rdx,-0x458(%rbp)
     eab:	64 48 8b 04 25 28 00 	mov    %fs:0x28,%rax
     eb2:	00 00 
     eb4:	48 89 45 f8          	mov    %rax,-0x8(%rbp)
     eb8:	31 c0                	xor    %eax,%eax
     eba:	48 8d 95 10 fc ff ff 	lea    -0x3f0(%rbp),%rdx
     ec1:	48 8b 8d b0 fb ff ff 	mov    -0x450(%rbp),%rcx
     ec8:	8b 85 bc fb ff ff    	mov    -0x444(%rbp),%eax
     ece:	48 89 ce             	mov    %rcx,%rsi
     ed1:	89 c7                	mov    %eax,%edi
     ed3:	e8 00 00 00 00       	call   ed8 <carregarColecaoBD+0x50>
     ed8:	48 8d 85 10 fc ff ff 	lea    -0x3f0(%rbp),%rax
     edf:	48 8d 35 00 00 00 00 	lea    0x0(%rip),%rsi        # ee6 <carregarColecaoBD+0x5e>
     ee6:	48 89 c7             	mov    %rax,%rdi
     ee9:	e8 00 00 00 00       	call   eee <carregarColecaoBD+0x66>
     eee:	48 89 85 e0 fb ff ff 	mov    %rax,-0x420(%rbp)
     ef5:	48 83 bd e0 fb ff ff 	cmpq   $0x0,-0x420(%rbp)
     efc:	00 
     efd:	75 0a                	jne    f09 <carregarColecaoBD+0x81>
     eff:	b8 01 00 00 00       	mov    $0x1,%eax
     f04:	e9 ac 02 00 00       	jmp    11b5 <carregarColecaoBD+0x32d>
     f09:	83 bd bc fb ff ff 00 	cmpl   $0x0,-0x444(%rbp)
     f10:	75 78                	jne    f8a <carregarColecaoBD+0x102>
     f12:	48 8b 95 e0 fb ff ff 	mov    -0x420(%rbp),%rdx
     f19:	48 8d 85 c8 fb ff ff 	lea    -0x438(%rbp),%rax
     f20:	48 89 d1             	mov    %rdx,%rcx
     f23:	ba 01 00 00 00       	mov    $0x1,%edx
     f28:	be 04 00 00 00       	mov    $0x4,%esi
     f2d:	48 89 c7             	mov    %rax,%rdi
     f30:	e8 00 00 00 00       	call   f35 <carregarColecaoBD+0xad>
     f35:	c7 85 cc fb ff ff 00 	movl   $0x0,-0x434(%rbp)
     f3c:	00 00 00 
     f3f:	eb 36                	jmp    f77 <carregarColecaoBD+0xef>
     f41:	48 8b 85 e0 fb ff ff 	mov    -0x420(%rbp),%rax
     f48:	48 89 c7             	mov    %rax,%rdi
     f4b:	e8 00 00 00 00       	call   f50 <carregarColecaoBD+0xc8>
     f50:	48 89 85 08 fc ff ff 	mov    %rax,-0x3f8(%rbp)
     f57:	48 8b 95 08 fc ff ff 	mov    -0x3f8(%rbp),%rdx
     f5e:	48 8b 85 a8 fb ff ff 	mov    -0x458(%rbp),%rax
     f65:	48 89 d6             	mov    %rdx,%rsi
     f68:	48 89 c7             	mov    %rax,%rdi
     f6b:	e8 00 00 00 00       	call   f70 <carregarColecaoBD+0xe8>
     f70:	83 85 cc fb ff ff 01 	addl   $0x1,-0x434(%rbp)
     f77:	8b 85 c8 fb ff ff    	mov    -0x438(%rbp),%eax
     f7d:	39 85 cc fb ff ff    	cmp    %eax,-0x434(%rbp)
     f83:	7c bc                	jl     f41 <carregarColecaoBD+0xb9>
     f85:	e9 17 02 00 00       	jmp    11a1 <carregarColecaoBD+0x319>
     f8a:	83 bd bc fb ff ff 01 	cmpl   $0x1,-0x444(%rbp)
     f91:	75 78                	jne    100b <carregarColecaoBD+0x183>
     f93:	48 8b 95 e0 fb ff ff 	mov    -0x420(%rbp),%rdx
     f9a:	48 8d 85 c8 fb ff ff 	lea    -0x438(%rbp),%rax
     fa1:	48 89 d1             	mov    %rdx,%rcx
     fa4:	ba 01 00 00 00       	mov    $0x1,%edx
     fa9:	be 04 00 00 00       	mov    $0x4,%esi
     fae:	48 89 c7             	mov    %rax,%rdi
     fb1:	e8 00 00 00 00       	call   fb6 <carregarColecaoBD+0x12e>
     fb6:	c7 85 d0 fb ff ff 00 	movl   $0x0,-0x430(%rbp)
     fbd:	00 00 00 
     fc0:	eb 36                	jmp    ff8 <carregarColecaoBD+0x170>
     fc2:	48 8b 85 e0 fb ff ff 	mov    -0x420(%rbp),%rax
     fc9:	48 89 c7             	mov    %rax,%rdi
     fcc:	e8 00 00 00 00       	call   fd1 <carregarColecaoBD+0x149>
     fd1:	48 89 85 00 fc ff ff 	mov    %rax,-0x400(%rbp)
     fd8:	48 8b 95 00 fc ff ff 	mov    -0x400(%rbp),%rdx
     fdf:	48 8b 85 a8 fb ff ff 	mov    -0x458(%rbp),%rax
     fe6:	48 89 d6             	mov    %rdx,%rsi
     fe9:	48 89 c7             	mov    %rax,%rdi
     fec:	e8 00 00 00 00       	call   ff1 <carregarColecaoBD+0x169>
     ff1:	83 85 d0 fb ff ff 01 	addl   $0x1,-0x430(%rbp)
     ff8:	8b 85 c8 fb ff ff    	mov    -0x438(%rbp),%eax
     ffe:	39 85 d0 fb ff ff    	cmp    %eax,-0x430(%rbp)
    1004:	7c bc                	jl     fc2 <carregarColecaoBD+0x13a>
    1006:	e9 96 01 00 00       	jmp    11a1 <carregarColecaoBD+0x319>
    100b:	83 bd bc fb ff ff 02 	cmpl   $0x2,-0x444(%rbp)
    1012:	75 78                	jne    108c <carregarColecaoBD+0x204>
    1014:	48 8b 95 e0 fb ff ff 	mov    -0x420(%rbp),%rdx
    101b:	48 8d 85 c8 fb ff ff 	lea    -0x438(%rbp),%rax
    1022:	48 89 d1             	mov    %rdx,%rcx
    1025:	ba 01 00 00 00       	mov    $0x1,%edx
    102a:	be 04 00 00 00       	mov    $0x4,%esi
    102f:	48 89 c7             	mov    %rax,%rdi
    1032:	e8 00 00 00 00       	call   1037 <carregarColecaoBD+0x1af>
    1037:	c7 85 d4 fb ff ff 00 	movl   $0x0,-0x42c(%rbp)
    103e:	00 00 00 
    1041:	eb 36                	jmp    1079 <carregarColecaoBD+0x1f1>
    1043:	48 8b 85 e0 fb ff ff 	mov    -0x420(%rbp),%rax
    104a:	48 89 c7             	mov    %rax,%rdi
    104d:	e8 00 00 00 00       	call   1052 <carregarColecaoBD+0x1ca>
    1052:	48 89 85 f8 fb ff ff 	mov    %rax,-0x408(%rbp)
    1059:	48 8b 95 f8 fb ff ff 	mov    -0x408(%rbp),%rdx
    1060:	48 8b 85 a8 fb ff ff 	mov    -0x458(%rbp),%rax
    1067:	48 89 d6             	mov    %rdx,%rsi
    106a:	48 89 c7             	mov    %rax,%rdi
    106d:	e8 00 00 00 00       	call   1072 <carregarColecaoBD+0x1ea>
    1072:	83 85 d4 fb ff ff 01 	addl   $0x1,-0x42c(%rbp)
    1079:	8b 85 c8 fb ff ff    	mov    -0x438(%rbp),%eax
    107f:	39 85 d4 fb ff ff    	cmp    %eax,-0x42c(%rbp)
    1085:	7c bc                	jl     1043 <carregarColecaoBD+0x1bb>
    1087:	e9 15 01 00 00       	jmp    11a1 <carregarColecaoBD+0x319>
    108c:	83 bd bc fb ff ff 04 	cmpl   $0x4,-0x444(%rbp)
    1093:	75 78                	jne    110d <carregarColecaoBD+0x285>
    1095:	48 8b 95 e0 fb ff ff 	mov    -0x420(%rbp),%rdx
    109c:	48 8d 85 c8 fb ff ff 	lea    -0x438(%rbp),%rax
    10a3:	48 89 d1             	mov    %rdx,%rcx
    10a6:	ba 01 00 00 00       	mov    $0x1,%edx
    10ab:	be 04 00 00 00       	mov    $0x4,%esi
    10b0:	48 89 c7             	mov    %rax,%rdi
    10b3:	e8 00 00 00 00       	call   10b8 <carregarColecaoBD+0x230>
    10b8:	c7 85 d8 fb ff ff 00 	movl   $0x0,-0x428(%rbp)
    10bf:	00 00 00 
    10c2:	eb 36                	jmp    10fa <carregarColecaoBD+0x272>
    10c4:	48 8b 85 e0 fb ff ff 	mov    -0x420(%rbp),%rax
    10cb:	48 89 c7             	mov    %rax,%rdi
    10ce:	e8 00 00 00 00       	call   10d3 <carregarColecaoBD+0x24b>
    10d3:	48 89 85 f0 fb ff ff 	mov    %rax,-0x410(%rbp)
    10da:	48 8b 95 f0 fb ff ff 	mov    -0x410(%rbp),%rdx
    10e1:	48 8b 85 a8 fb ff ff 	mov    -0x458(%rbp),%rax
    10e8:	48 89 d6             	mov    %rdx,%rsi
    10eb:	48 89 c7             	mov    %rax,%rdi
    10ee:	e8 00 00 00 00       	call   10f3 <carregarColecaoBD+0x26b>
    10f3:	83 85 d8 fb ff ff 01 	addl   $0x1,-0x428(%rbp)
    10fa:	8b 85 c8 fb ff ff    	mov    -0x438(%rbp),%eax
    1100:	39 85 d8 fb ff ff    	cmp    %eax,-0x428(%rbp)
    1106:	7c bc                	jl     10c4 <carregarColecaoBD+0x23c>
    1108:	e9 94 00 00 00       	jmp    11a1 <carregarColecaoBD+0x319>
    110d:	83 bd bc fb ff ff 03 	cmpl   $0x3,-0x444(%rbp)
    1114:	75 75                	jne    118b <carregarColecaoBD+0x303>
    1116:	48 8b 95 e0 fb ff ff 	mov    -0x420(%rbp),%rdx
    111d:	48 8d 85 c8 fb ff ff 	lea    -0x438(%rbp),%rax
    1124:	48 89 d1             	mov    %rdx,%rcx
    1127:	ba 01 00 00 00       	mov    $0x1,%edx
    112c:	be 04 00 00 00       	mov    $0x4,%esi
    1131:	48 89 c7             	mov    %rax,%rdi
    1134:	e8 00 00 00 00       	call   1139 <carregarColecaoBD+0x2b1>
    1139:	c7 85 dc fb ff ff 00 	movl   $0x0,-0x424(%rbp)
    1140:	00 00 00 
    1143:	eb 36                	jmp    117b <carregarColecaoBD+0x2f3>
    1145:	48 8b 85 e0 fb ff ff 	mov    -0x420(%rbp),%rax
    114c:	48 89 c7             	mov    %rax,%rdi
    114f:	e8 00 00 00 00       	call   1154 <carregarColecaoBD+0x2cc>
    1154:	48 89 85 e8 fb ff ff 	mov    %rax,-0x418(%rbp)
    115b:	48 8b 95 e8 fb ff ff 	mov    -0x418(%rbp),%rdx
    1162:	48 8b 85 a8 fb ff ff 	mov    -0x458(%rbp),%rax
    1169:	48 89 d6             	mov    %rdx,%rsi
    116c:	48 89 c7             	mov    %rax,%rdi
    116f:	e8 00 00 00 00       	call   1174 <carregarColecaoBD+0x2ec>
    1174:	83 85 dc fb ff ff 01 	addl   $0x1,-0x424(%rbp)
    117b:	8b 85 c8 fb ff ff    	mov    -0x438(%rbp),%eax
    1181:	39 85 dc fb ff ff    	cmp    %eax,-0x424(%rbp)
    1187:	7c bc                	jl     1145 <carregarColecaoBD+0x2bd>
    1189:	eb 16                	jmp    11a1 <carregarColecaoBD+0x319>
    118b:	48 8d 3d 00 00 00 00 	lea    0x0(%rip),%rdi        # 1192 <carregarColecaoBD+0x30a>
    1192:	e8 00 00 00 00       	call   1197 <carregarColecaoBD+0x30f>
    1197:	bf 01 00 00 00       	mov    $0x1,%edi
    119c:	e8 00 00 00 00       	call   11a1 <carregarColecaoBD+0x319>
    11a1:	48 8b 85 e0 fb ff ff 	mov    -0x420(%rbp),%rax
    11a8:	48 89 c7             	mov    %rax,%rdi
    11ab:	e8 00 00 00 00       	call   11b0 <carregarColecaoBD+0x328>
    11b0:	b8 00 00 00 00       	mov    $0x0,%eax
    11b5:	48 8b 4d f8          	mov    -0x8(%rbp),%rcx
    11b9:	64 48 33 0c 25 28 00 	xor    %fs:0x28,%rcx
    11c0:	00 00 
    11c2:	74 05                	je     11c9 <carregarColecaoBD+0x341>
    11c4:	e8 00 00 00 00       	call   11c9 <carregarColecaoBD+0x341>
    11c9:	c9                   	leave  
    11ca:	c3                   	ret    

00000000000011cb <autenticaLogin>:
    11cb:	f3 0f 1e fa          	endbr64 
    11cf:	55                   	push   %rbp
    11d0:	48 89 e5             	mov    %rsp,%rbp
    11d3:	48 83 ec 30          	sub    $0x30,%rsp
    11d7:	48 89 7d e8          	mov    %rdi,-0x18(%rbp)
    11db:	48 89 75 e0          	mov    %rsi,-0x20(%rbp)
    11df:	48 89 55 d8          	mov    %rdx,-0x28(%rbp)
    11e3:	89 c8                	mov    %ecx,%eax
    11e5:	88 45 d4             	mov    %al,-0x2c(%rbp)
    11e8:	80 7d d4 73          	cmpb   $0x73,-0x2c(%rbp)
    11ec:	75 09                	jne    11f7 <autenticaLogin+0x2c>
    11ee:	48 8b 45 e8          	mov    -0x18(%rbp),%rax
    11f2:	8b 40 08             	mov    0x8(%rax),%eax
    11f5:	eb 07                	jmp    11fe <autenticaLogin+0x33>
    11f7:	48 8b 45 e8          	mov    -0x18(%rbp),%rax
    11fb:	8b 40 18             	mov    0x18(%rax),%eax
    11fe:	89 45 fc             	mov    %eax,-0x4(%rbp)
    1201:	c7 45 f8 00 00 00 00 	movl   $0x0,-0x8(%rbp)
    1208:	eb 77                	jmp    1281 <autenticaLogin+0xb6>
    120a:	80 7d d4 73          	cmpb   $0x73,-0x2c(%rbp)
    120e:	75 33                	jne    1243 <autenticaLogin+0x78>
    1210:	48 8b 45 e8          	mov    -0x18(%rbp),%rax
    1214:	48 8b 00             	mov    (%rax),%rax
    1217:	8b 55 f8             	mov    -0x8(%rbp),%edx
    121a:	48 63 d2             	movslq %edx,%rdx
    121d:	48 c1 e2 03          	shl    $0x3,%rdx
    1221:	48 01 d0             	add    %rdx,%rax
    1224:	48 8b 00             	mov    (%rax),%rax
    1227:	48 8b 55 d8          	mov    -0x28(%rbp),%rdx
    122b:	48 8b 4d e0          	mov    -0x20(%rbp),%rcx
    122f:	48 89 ce             	mov    %rcx,%rsi
    1232:	48 89 c7             	mov    %rax,%rdi
    1235:	e8 00 00 00 00       	call   123a <autenticaLogin+0x6f>
    123a:	85 c0                	test   %eax,%eax
    123c:	74 3f                	je     127d <autenticaLogin+0xb2>
    123e:	8b 45 f8             	mov    -0x8(%rbp),%eax
    1241:	eb 4b                	jmp    128e <autenticaLogin+0xc3>
    1243:	80 7d d4 6d          	cmpb   $0x6d,-0x2c(%rbp)
    1247:	75 34                	jne    127d <autenticaLogin+0xb2>
    1249:	48 8b 45 e8          	mov    -0x18(%rbp),%rax
    124d:	48 8b 40 10          	mov    0x10(%rax),%rax
    1251:	8b 55 f8             	mov    -0x8(%rbp),%edx
    1254:	48 63 d2             	movslq %edx,%rdx
    1257:	48 c1 e2 03          	shl    $0x3,%rdx
    125b:	48 01 d0             	add    %rdx,%rax
    125e:	48 8b 00             	mov    (%rax),%rax
    1261:	48 8b 55 d8          	mov    -0x28(%rbp),%rdx
    1265:	48 8b 4d e0          	mov    -0x20(%rbp),%rcx
    1269:	48 89 ce             	mov    %rcx,%rsi
    126c:	48 89 c7             	mov    %rax,%rdi
    126f:	e8 00 00 00 00       	call   1274 <autenticaLogin+0xa9>
    1274:	85 c0                	test   %eax,%eax
    1276:	74 05                	je     127d <autenticaLogin+0xb2>
    1278:	8b 45 f8             	mov    -0x8(%rbp),%eax
    127b:	eb 11                	jmp    128e <autenticaLogin+0xc3>
    127d:	83 45 f8 01          	addl   $0x1,-0x8(%rbp)
    1281:	8b 45 f8             	mov    -0x8(%rbp),%eax
    1284:	3b 45 fc             	cmp    -0x4(%rbp),%eax
    1287:	7c 81                	jl     120a <autenticaLogin+0x3f>
    1289:	b8 ff ff ff ff       	mov    $0xffffffff,%eax
    128e:	c9                   	leave  
    128f:	c3                   	ret    

0000000000001290 <executaCadastroSecretario>:
    1290:	f3 0f 1e fa          	endbr64 
    1294:	55                   	push   %rbp
    1295:	48 89 e5             	mov    %rsp,%rbp
    1298:	48 83 ec 20          	sub    $0x20,%rsp
    129c:	48 89 7d e8          	mov    %rdi,-0x18(%rbp)
    12a0:	b8 00 00 00 00       	mov    $0x0,%eax
    12a5:	e8 00 00 00 00       	call   12aa <executaCadastroSecretario+0x1a>
    12aa:	48 89 45 f8          	mov    %rax,-0x8(%rbp)
    12ae:	48 8b 45 f8          	mov    -0x8(%rbp),%rax
    12b2:	48 89 c7             	mov    %rax,%rdi
    12b5:	e8 00 00 00 00       	call   12ba <executaCadastroSecretario+0x2a>
    12ba:	48 89 c2             	mov    %rax,%rdx
    12bd:	48 8b 45 e8          	mov    -0x18(%rbp),%rax
    12c1:	48 89 d6             	mov    %rdx,%rsi
    12c4:	48 89 c7             	mov    %rax,%rdi
    12c7:	e8 00 00 00 00       	call   12cc <executaCadastroSecretario+0x3c>
    12cc:	85 c0                	test   %eax,%eax
    12ce:	78 1a                	js     12ea <executaCadastroSecretario+0x5a>
    12d0:	48 8d 3d 00 00 00 00 	lea    0x0(%rip),%rdi        # 12d7 <executaCadastroSecretario+0x47>
    12d7:	e8 00 00 00 00       	call   12dc <executaCadastroSecretario+0x4c>
    12dc:	48 8b 45 f8          	mov    -0x8(%rbp),%rax
    12e0:	48 89 c7             	mov    %rax,%rdi
    12e3:	e8 00 00 00 00       	call   12e8 <executaCadastroSecretario+0x58>
    12e8:	eb 1d                	jmp    1307 <executaCadastroSecretario+0x77>
    12ea:	48 8b 55 f8          	mov    -0x8(%rbp),%rdx
    12ee:	48 8b 45 e8          	mov    -0x18(%rbp),%rax
    12f2:	48 89 d6             	mov    %rdx,%rsi
    12f5:	48 89 c7             	mov    %rax,%rdi
    12f8:	e8 00 00 00 00       	call   12fd <executaCadastroSecretario+0x6d>
    12fd:	bf 00 00 00 00       	mov    $0x0,%edi
    1302:	e8 00 00 00 00       	call   1307 <executaCadastroSecretario+0x77>
    1307:	90                   	nop
    1308:	c9                   	leave  
    1309:	c3                   	ret    

000000000000130a <executaCadastroMedico>:
    130a:	f3 0f 1e fa          	endbr64 
    130e:	55                   	push   %rbp
    130f:	48 89 e5             	mov    %rsp,%rbp
    1312:	48 83 ec 20          	sub    $0x20,%rsp
    1316:	48 89 7d e8          	mov    %rdi,-0x18(%rbp)
    131a:	b8 00 00 00 00       	mov    $0x0,%eax
    131f:	e8 00 00 00 00       	call   1324 <executaCadastroMedico+0x1a>
    1324:	48 89 45 f8          	mov    %rax,-0x8(%rbp)
    1328:	48 8b 45 f8          	mov    -0x8(%rbp),%rax
    132c:	48 89 c7             	mov    %rax,%rdi
    132f:	e8 00 00 00 00       	call   1334 <executaCadastroMedico+0x2a>
    1334:	48 89 c2             	mov    %rax,%rdx
    1337:	48 8b 45 e8          	mov    -0x18(%rbp),%rax
    133b:	48 89 d6             	mov    %rdx,%rsi
    133e:	48 89 c7             	mov    %rax,%rdi
    1341:	e8 00 00 00 00       	call   1346 <executaCadastroMedico+0x3c>
    1346:	85 c0                	test   %eax,%eax
    1348:	78 1a                	js     1364 <executaCadastroMedico+0x5a>
    134a:	48 8d 3d 00 00 00 00 	lea    0x0(%rip),%rdi        # 1351 <executaCadastroMedico+0x47>
    1351:	e8 00 00 00 00       	call   1356 <executaCadastroMedico+0x4c>
    1356:	48 8b 45 f8          	mov    -0x8(%rbp),%rax
    135a:	48 89 c7             	mov    %rax,%rdi
    135d:	e8 00 00 00 00       	call   1362 <executaCadastroMedico+0x58>
    1362:	eb 1d                	jmp    1381 <executaCadastroMedico+0x77>
    1364:	48 8b 55 f8          	mov    -0x8(%rbp),%rdx
    1368:	48 8b 45 e8          	mov    -0x18(%rbp),%rax
    136c:	48 89 d6             	mov    %rdx,%rsi
    136f:	48 89 c7             	mov    %rax,%rdi
    1372:	e8 00 00 00 00       	call   1377 <executaCadastroMedico+0x6d>
    1377:	bf 01 00 00 00       	mov    $0x1,%edi
    137c:	e8 00 00 00 00       	call   1381 <executaCadastroMedico+0x77>
    1381:	90                   	nop
    1382:	c9                   	leave  
    1383:	c3                   	ret    

0000000000001384 <executaCadastroPaciente>:
    1384:	f3 0f 1e fa          	endbr64 
    1388:	55                   	push   %rbp
    1389:	48 89 e5             	mov    %rsp,%rbp
    138c:	48 83 ec 20          	sub    $0x20,%rsp
    1390:	48 89 7d e8          	mov    %rdi,-0x18(%rbp)
    1394:	b8 00 00 00 00       	mov    $0x0,%eax
    1399:	e8 00 00 00 00       	call   139e <executaCadastroPaciente+0x1a>
    139e:	48 89 45 f8          	mov    %rax,-0x8(%rbp)
    13a2:	48 8b 45 f8          	mov    -0x8(%rbp),%rax
    13a6:	48 89 c7             	mov    %rax,%rdi
    13a9:	e8 00 00 00 00       	call   13ae <executaCadastroPaciente+0x2a>
    13ae:	48 89 c2             	mov    %rax,%rdx
    13b1:	48 8b 45 e8          	mov    -0x18(%rbp),%rax
    13b5:	48 89 d6             	mov    %rdx,%rsi
    13b8:	48 89 c7             	mov    %rax,%rdi
    13bb:	e8 00 00 00 00       	call   13c0 <executaCadastroPaciente+0x3c>
    13c0:	85 c0                	test   %eax,%eax
    13c2:	78 1a                	js     13de <executaCadastroPaciente+0x5a>
    13c4:	48 8d 3d 00 00 00 00 	lea    0x0(%rip),%rdi        # 13cb <executaCadastroPaciente+0x47>
    13cb:	e8 00 00 00 00       	call   13d0 <executaCadastroPaciente+0x4c>
    13d0:	48 8b 45 f8          	mov    -0x8(%rbp),%rax
    13d4:	48 89 c7             	mov    %rax,%rdi
    13d7:	e8 00 00 00 00       	call   13dc <executaCadastroPaciente+0x58>
    13dc:	eb 1d                	jmp    13fb <executaCadastroPaciente+0x77>
    13de:	48 8b 55 f8          	mov    -0x8(%rbp),%rdx
    13e2:	48 8b 45 e8          	mov    -0x18(%rbp),%rax
    13e6:	48 89 d6             	mov    %rdx,%rsi
    13e9:	48 89 c7             	mov    %rax,%rdi
    13ec:	e8 00 00 00 00       	call   13f1 <executaCadastroPaciente+0x6d>
    13f1:	bf 02 00 00 00       	mov    $0x2,%edi
    13f6:	e8 00 00 00 00       	call   13fb <executaCadastroPaciente+0x77>
    13fb:	90                   	nop
    13fc:	c9                   	leave  
    13fd:	c3                   	ret    

00000000000013fe <executaConsultaMedica>:
    13fe:	f3 0f 1e fa          	endbr64 
    1402:	55                   	push   %rbp
    1403:	48 89 e5             	mov    %rsp,%rbp
    1406:	41 54                	push   %r12
    1408:	53                   	push   %rbx
    1409:	48 81 ec 90 00 00 00 	sub    $0x90,%rsp
    1410:	48 89 bd 78 ff ff ff 	mov    %rdi,-0x88(%rbp)
    1417:	48 89 b5 70 ff ff ff 	mov    %rsi,-0x90(%rbp)
    141e:	48 89 95 68 ff ff ff 	mov    %rdx,-0x98(%rbp)
    1425:	64 48 8b 04 25 28 00 	mov    %fs:0x28,%rax
    142c:	00 00 
    142e:	48 89 45 e8          	mov    %rax,-0x18(%rbp)
    1432:	31 c0                	xor    %eax,%eax
    1434:	48 8d 45 d9          	lea    -0x27(%rbp),%rax
    1438:	48 89 c7             	mov    %rax,%rdi
    143b:	e8 00 00 00 00       	call   1440 <executaConsultaMedica+0x42>
    1440:	48 8d 55 d9          	lea    -0x27(%rbp),%rdx
    1444:	48 8b 85 78 ff ff ff 	mov    -0x88(%rbp),%rax
    144b:	48 89 d6             	mov    %rdx,%rsi
    144e:	48 89 c7             	mov    %rax,%rdi
    1451:	e8 00 00 00 00       	call   1456 <executaConsultaMedica+0x58>
    1456:	89 45 84             	mov    %eax,-0x7c(%rbp)
    1459:	83 7d 84 ff          	cmpl   $0xffffffff,-0x7c(%rbp)
    145d:	75 0f                	jne    146e <executaConsultaMedica+0x70>
    145f:	bf 03 00 00 00       	mov    $0x3,%edi
    1464:	e8 00 00 00 00       	call   1469 <executaConsultaMedica+0x6b>
    1469:	e9 6d 02 00 00       	jmp    16db <executaConsultaMedica+0x2dd>
    146e:	48 8b 85 78 ff ff ff 	mov    -0x88(%rbp),%rax
    1475:	48 8b 40 20          	mov    0x20(%rax),%rax
    1479:	8b 55 84             	mov    -0x7c(%rbp),%edx
    147c:	48 63 d2             	movslq %edx,%rdx
    147f:	48 c1 e2 03          	shl    $0x3,%rdx
    1483:	48 01 d0             	add    %rdx,%rax
    1486:	48 8b 00             	mov    (%rax),%rax
    1489:	48 89 45 90          	mov    %rax,-0x70(%rbp)
    148d:	48 8b 45 90          	mov    -0x70(%rbp),%rax
    1491:	48 89 c7             	mov    %rax,%rdi
    1494:	e8 00 00 00 00       	call   1499 <executaConsultaMedica+0x9b>
    1499:	48 89 45 98          	mov    %rax,-0x68(%rbp)
    149d:	48 8b 85 68 ff ff ff 	mov    -0x98(%rbp),%rax
    14a4:	48 89 c7             	mov    %rax,%rdi
    14a7:	e8 00 00 00 00       	call   14ac <executaConsultaMedica+0xae>
    14ac:	89 c2                	mov    %eax,%edx
    14ae:	48 8b 45 98          	mov    -0x68(%rbp),%rax
    14b2:	89 d6                	mov    %edx,%esi
    14b4:	48 89 c7             	mov    %rax,%rdi
    14b7:	e8 00 00 00 00       	call   14bc <executaConsultaMedica+0xbe>
    14bc:	48 89 45 a0          	mov    %rax,-0x60(%rbp)
    14c0:	b8 00 00 00 00       	mov    $0x0,%eax
    14c5:	e8 00 00 00 00       	call   14ca <executaConsultaMedica+0xcc>
    14ca:	89 45 88             	mov    %eax,-0x78(%rbp)
    14cd:	83 7d 88 01          	cmpl   $0x1,-0x78(%rbp)
    14d1:	75 5e                	jne    1531 <executaConsultaMedica+0x133>
    14d3:	b8 00 00 00 00       	mov    $0x0,%eax
    14d8:	e8 00 00 00 00       	call   14dd <executaConsultaMedica+0xdf>
    14dd:	48 89 45 c0          	mov    %rax,-0x40(%rbp)
    14e1:	48 8b 55 c0          	mov    -0x40(%rbp),%rdx
    14e5:	48 8b 85 78 ff ff ff 	mov    -0x88(%rbp),%rax
    14ec:	48 89 d6             	mov    %rdx,%rsi
    14ef:	48 89 c7             	mov    %rax,%rdi
    14f2:	e8 00 00 00 00       	call   14f7 <executaConsultaMedica+0xf9>
    14f7:	48 8b 45 c0          	mov    -0x40(%rbp),%rax
    14fb:	48 89 c7             	mov    %rax,%rdi
    14fe:	e8 00 00 00 00       	call   1503 <executaConsultaMedica+0x105>
    1503:	89 c2                	mov    %eax,%edx
    1505:	48 8b 45 a0          	mov    -0x60(%rbp),%rax
    1509:	89 d6                	mov    %edx,%esi
    150b:	48 89 c7             	mov    %rax,%rdi
    150e:	e8 00 00 00 00       	call   1513 <executaConsultaMedica+0x115>
    1513:	48 8b 45 a0          	mov    -0x60(%rbp),%rax
    1517:	48 89 c7             	mov    %rax,%rdi
    151a:	e8 00 00 00 00       	call   151f <executaConsultaMedica+0x121>
    151f:	89 c2                	mov    %eax,%edx
    1521:	48 8b 45 c0          	mov    -0x40(%rbp),%rax
    1525:	89 d6                	mov    %edx,%esi
    1527:	48 89 c7             	mov    %rax,%rdi
    152a:	e8 00 00 00 00       	call   152f <executaConsultaMedica+0x131>
    152f:	eb 8f                	jmp    14c0 <executaConsultaMedica+0xc2>
    1531:	83 7d 88 02          	cmpl   $0x2,-0x78(%rbp)
    1535:	0f 85 8f 00 00 00    	jne    15ca <executaConsultaMedica+0x1cc>
    153b:	48 8d 55 cd          	lea    -0x33(%rbp),%rdx
    153f:	48 8b 45 98          	mov    -0x68(%rbp),%rax
    1543:	48 89 d6             	mov    %rdx,%rsi
    1546:	48 89 c7             	mov    %rax,%rdi
    1549:	e8 00 00 00 00       	call   154e <executaConsultaMedica+0x150>
    154e:	48 8b 85 68 ff ff ff 	mov    -0x98(%rbp),%rax
    1555:	48 89 c7             	mov    %rax,%rdi
    1558:	e8 00 00 00 00       	call   155d <executaConsultaMedica+0x15f>
    155d:	49 89 c4             	mov    %rax,%r12
    1560:	48 8b 85 68 ff ff ff 	mov    -0x98(%rbp),%rax
    1567:	48 89 c7             	mov    %rax,%rdi
    156a:	e8 00 00 00 00       	call   156f <executaConsultaMedica+0x171>
    156f:	48 89 c3             	mov    %rax,%rbx
    1572:	48 8b 45 90          	mov    -0x70(%rbp),%rax
    1576:	48 89 c7             	mov    %rax,%rdi
    1579:	e8 00 00 00 00       	call   157e <executaConsultaMedica+0x180>
    157e:	48 89 c7             	mov    %rax,%rdi
    1581:	48 8d 45 cd          	lea    -0x33(%rbp),%rax
    1585:	48 89 c1             	mov    %rax,%rcx
    1588:	4c 89 e2             	mov    %r12,%rdx
    158b:	48 89 de             	mov    %rbx,%rsi
    158e:	e8 00 00 00 00       	call   1593 <executaConsultaMedica+0x195>
    1593:	48 89 45 b8          	mov    %rax,-0x48(%rbp)
    1597:	48 8b 75 b8          	mov    -0x48(%rbp),%rsi
    159b:	48 8b 85 70 ff ff ff 	mov    -0x90(%rbp),%rax
    15a2:	48 8b 15 00 00 00 00 	mov    0x0(%rip),%rdx        # 15a9 <executaConsultaMedica+0x1ab>
    15a9:	49 89 d0             	mov    %rdx,%r8
    15ac:	48 8b 15 00 00 00 00 	mov    0x0(%rip),%rdx        # 15b3 <executaConsultaMedica+0x1b5>
    15b3:	48 89 d1             	mov    %rdx,%rcx
    15b6:	48 8b 15 00 00 00 00 	mov    0x0(%rip),%rdx        # 15bd <executaConsultaMedica+0x1bf>
    15bd:	48 89 c7             	mov    %rax,%rdi
    15c0:	e8 00 00 00 00       	call   15c5 <executaConsultaMedica+0x1c7>
    15c5:	e9 f6 fe ff ff       	jmp    14c0 <executaConsultaMedica+0xc2>
    15ca:	83 7d 88 03          	cmpl   $0x3,-0x78(%rbp)
    15ce:	75 7c                	jne    164c <executaConsultaMedica+0x24e>
    15d0:	48 8b 45 a0          	mov    -0x60(%rbp),%rax
    15d4:	48 89 c7             	mov    %rax,%rdi
    15d7:	e8 00 00 00 00       	call   15dc <executaConsultaMedica+0x1de>
    15dc:	89 45 8c             	mov    %eax,-0x74(%rbp)
    15df:	8b 45 8c             	mov    -0x74(%rbp),%eax
    15e2:	89 c7                	mov    %eax,%edi
    15e4:	e8 00 00 00 00       	call   15e9 <executaConsultaMedica+0x1eb>
    15e9:	83 7d 8c 00          	cmpl   $0x0,-0x74(%rbp)
    15ed:	0f 8e cd fe ff ff    	jle    14c0 <executaConsultaMedica+0xc2>
    15f3:	48 8b 85 78 ff ff ff 	mov    -0x88(%rbp),%rax
    15fa:	48 8b 70 30          	mov    0x30(%rax),%rsi
    15fe:	48 8b 7d 98          	mov    -0x68(%rbp),%rdi
    1602:	48 8b 8d 68 ff ff ff 	mov    -0x98(%rbp),%rcx
    1609:	8b 55 8c             	mov    -0x74(%rbp),%edx
    160c:	48 8b 45 90          	mov    -0x70(%rbp),%rax
    1610:	49 89 f8             	mov    %rdi,%r8
    1613:	48 89 c7             	mov    %rax,%rdi
    1616:	e8 00 00 00 00       	call   161b <executaConsultaMedica+0x21d>
    161b:	48 89 45 b0          	mov    %rax,-0x50(%rbp)
    161f:	48 8b 75 b0          	mov    -0x50(%rbp),%rsi
    1623:	48 8b 85 70 ff ff ff 	mov    -0x90(%rbp),%rax
    162a:	4c 8d 05 00 00 00 00 	lea    0x0(%rip),%r8        # 1631 <executaConsultaMedica+0x233>
    1631:	48 8d 0d 00 00 00 00 	lea    0x0(%rip),%rcx        # 1638 <executaConsultaMedica+0x23a>
    1638:	48 8d 15 00 00 00 00 	lea    0x0(%rip),%rdx        # 163f <executaConsultaMedica+0x241>
    163f:	48 89 c7             	mov    %rax,%rdi
    1642:	e8 00 00 00 00       	call   1647 <executaConsultaMedica+0x249>
    1647:	e9 74 fe ff ff       	jmp    14c0 <executaConsultaMedica+0xc2>
    164c:	83 7d 88 04          	cmpl   $0x4,-0x78(%rbp)
    1650:	75 4b                	jne    169d <executaConsultaMedica+0x29f>
    1652:	48 8b 55 98          	mov    -0x68(%rbp),%rdx
    1656:	48 8b 8d 68 ff ff ff 	mov    -0x98(%rbp),%rcx
    165d:	48 8b 45 90          	mov    -0x70(%rbp),%rax
    1661:	48 89 ce             	mov    %rcx,%rsi
    1664:	48 89 c7             	mov    %rax,%rdi
    1667:	e8 00 00 00 00       	call   166c <executaConsultaMedica+0x26e>
    166c:	48 89 45 a8          	mov    %rax,-0x58(%rbp)
    1670:	48 8b 75 a8          	mov    -0x58(%rbp),%rsi
    1674:	48 8b 85 70 ff ff ff 	mov    -0x90(%rbp),%rax
    167b:	4c 8d 05 00 00 00 00 	lea    0x0(%rip),%r8        # 1682 <executaConsultaMedica+0x284>
    1682:	48 8d 0d 00 00 00 00 	lea    0x0(%rip),%rcx        # 1689 <executaConsultaMedica+0x28b>
    1689:	48 8d 15 00 00 00 00 	lea    0x0(%rip),%rdx        # 1690 <executaConsultaMedica+0x292>
    1690:	48 89 c7             	mov    %rax,%rdi
    1693:	e8 00 00 00 00       	call   1698 <executaConsultaMedica+0x29a>
    1698:	e9 23 fe ff ff       	jmp    14c0 <executaConsultaMedica+0xc2>
    169d:	83 7d 88 05          	cmpl   $0x5,-0x78(%rbp)
    16a1:	74 05                	je     16a8 <executaConsultaMedica+0x2aa>
    16a3:	e9 18 fe ff ff       	jmp    14c0 <executaConsultaMedica+0xc2>
    16a8:	90                   	nop
    16a9:	48 8b 55 a0          	mov    -0x60(%rbp),%rdx
    16ad:	48 8b 85 78 ff ff ff 	mov    -0x88(%rbp),%rax
    16b4:	48 89 d6             	mov    %rdx,%rsi
    16b7:	48 89 c7             	mov    %rax,%rdi
    16ba:	e8 00 00 00 00       	call   16bf <executaConsultaMedica+0x2c1>
    16bf:	48 8b 45 a0          	mov    -0x60(%rbp),%rax
    16c3:	48 89 c7             	mov    %rax,%rdi
    16c6:	e8 00 00 00 00       	call   16cb <executaConsultaMedica+0x2cd>
    16cb:	89 c2                	mov    %eax,%edx
    16cd:	48 8b 45 90          	mov    -0x70(%rbp),%rax
    16d1:	89 d6                	mov    %edx,%esi
    16d3:	48 89 c7             	mov    %rax,%rdi
    16d6:	e8 00 00 00 00       	call   16db <executaConsultaMedica+0x2dd>
    16db:	90                   	nop
    16dc:	48 8b 45 e8          	mov    -0x18(%rbp),%rax
    16e0:	64 48 33 04 25 28 00 	xor    %fs:0x28,%rax
    16e7:	00 00 
    16e9:	74 05                	je     16f0 <executaConsultaMedica+0x2f2>
    16eb:	e8 00 00 00 00       	call   16f0 <executaConsultaMedica+0x2f2>
    16f0:	48 81 c4 90 00 00 00 	add    $0x90,%rsp
    16f7:	5b                   	pop    %rbx
    16f8:	41 5c                	pop    %r12
    16fa:	5d                   	pop    %rbp
    16fb:	c3                   	ret    

00000000000016fc <executaFilaImpressao>:
    16fc:	f3 0f 1e fa          	endbr64 
    1700:	55                   	push   %rbp
    1701:	48 89 e5             	mov    %rsp,%rbp
    1704:	48 83 ec 20          	sub    $0x20,%rsp
    1708:	48 89 7d e8          	mov    %rdi,-0x18(%rbp)
    170c:	48 89 75 e0          	mov    %rsi,-0x20(%rbp)
    1710:	b8 00 00 00 00       	mov    $0x0,%eax
    1715:	e8 00 00 00 00       	call   171a <executaFilaImpressao+0x1e>
    171a:	89 45 fc             	mov    %eax,-0x4(%rbp)
    171d:	83 7d fc 01          	cmpl   $0x1,-0x4(%rbp)
    1721:	75 15                	jne    1738 <executaFilaImpressao+0x3c>
    1723:	48 8b 55 e0          	mov    -0x20(%rbp),%rdx
    1727:	48 8b 45 e8          	mov    -0x18(%rbp),%rax
    172b:	48 89 d6             	mov    %rdx,%rsi
    172e:	48 89 c7             	mov    %rax,%rdi
    1731:	e8 00 00 00 00       	call   1736 <executaFilaImpressao+0x3a>
    1736:	eb 06                	jmp    173e <executaFilaImpressao+0x42>
    1738:	83 7d fc 02          	cmpl   $0x2,-0x4(%rbp)
    173c:	74 0f                	je     174d <executaFilaImpressao+0x51>
    173e:	b8 00 00 00 00       	mov    $0x0,%eax
    1743:	e8 00 00 00 00       	call   1748 <executaFilaImpressao+0x4c>
    1748:	89 45 fc             	mov    %eax,-0x4(%rbp)
    174b:	eb d0                	jmp    171d <executaFilaImpressao+0x21>
    174d:	90                   	nop
    174e:	90                   	nop
    174f:	c9                   	leave  
    1750:	c3                   	ret    

0000000000001751 <executaBuscaPaciente>:
    1751:	f3 0f 1e fa          	endbr64 
    1755:	55                   	push   %rbp
    1756:	48 89 e5             	mov    %rsp,%rbp
    1759:	53                   	push   %rbx
    175a:	48 81 ec 48 01 00 00 	sub    $0x148,%rsp
    1761:	48 89 bd b8 fe ff ff 	mov    %rdi,-0x148(%rbp)
    1768:	48 89 b5 b0 fe ff ff 	mov    %rsi,-0x150(%rbp)
    176f:	64 48 8b 04 25 28 00 	mov    %fs:0x28,%rax
    1776:	00 00 
    1778:	48 89 45 e8          	mov    %rax,-0x18(%rbp)
    177c:	31 c0                	xor    %eax,%eax
    177e:	48 c7 85 d8 fe ff ff 	movq   $0x0,-0x128(%rbp)
    1785:	00 00 00 00 
    1789:	c7 85 cc fe ff ff 00 	movl   $0x0,-0x134(%rbp)
    1790:	00 00 00 
    1793:	48 8d 85 f0 fe ff ff 	lea    -0x110(%rbp),%rax
    179a:	48 89 c7             	mov    %rax,%rdi
    179d:	e8 00 00 00 00       	call   17a2 <executaBuscaPaciente+0x51>
    17a2:	48 8d 95 cc fe ff ff 	lea    -0x134(%rbp),%rdx
    17a9:	48 8d 8d f0 fe ff ff 	lea    -0x110(%rbp),%rcx
    17b0:	48 8b 85 b8 fe ff ff 	mov    -0x148(%rbp),%rax
    17b7:	48 89 ce             	mov    %rcx,%rsi
    17ba:	48 89 c7             	mov    %rax,%rdi
    17bd:	e8 00 00 00 00       	call   17c2 <executaBuscaPaciente+0x71>
    17c2:	48 89 85 d8 fe ff ff 	mov    %rax,-0x128(%rbp)
    17c9:	8b 85 cc fe ff ff    	mov    -0x134(%rbp),%eax
    17cf:	85 c0                	test   %eax,%eax
    17d1:	75 0f                	jne    17e2 <executaBuscaPaciente+0x91>
    17d3:	bf 09 00 00 00       	mov    $0x9,%edi
    17d8:	e8 00 00 00 00       	call   17dd <executaBuscaPaciente+0x8c>
    17dd:	e9 7f 01 00 00       	jmp    1961 <executaBuscaPaciente+0x210>
    17e2:	b8 00 00 00 00       	mov    $0x0,%eax
    17e7:	e8 00 00 00 00       	call   17ec <executaBuscaPaciente+0x9b>
    17ec:	48 89 85 e0 fe ff ff 	mov    %rax,-0x120(%rbp)
    17f3:	48 8d 3d 00 00 00 00 	lea    0x0(%rip),%rdi        # 17fa <executaBuscaPaciente+0xa9>
    17fa:	e8 00 00 00 00       	call   17ff <executaBuscaPaciente+0xae>
    17ff:	c7 85 d0 fe ff ff 00 	movl   $0x0,-0x130(%rbp)
    1806:	00 00 00 
    1809:	e9 b6 00 00 00       	jmp    18c4 <executaBuscaPaciente+0x173>
    180e:	48 8b 85 b8 fe ff ff 	mov    -0x148(%rbp),%rax
    1815:	48 8b 40 20          	mov    0x20(%rax),%rax
    1819:	8b 95 d0 fe ff ff    	mov    -0x130(%rbp),%edx
    181f:	48 63 d2             	movslq %edx,%rdx
    1822:	48 8d 0c 95 00 00 00 	lea    0x0(,%rdx,4),%rcx
    1829:	00 
    182a:	48 8b 95 d8 fe ff ff 	mov    -0x128(%rbp),%rdx
    1831:	48 01 ca             	add    %rcx,%rdx
    1834:	8b 12                	mov    (%rdx),%edx
    1836:	48 63 d2             	movslq %edx,%rdx
    1839:	48 c1 e2 03          	shl    $0x3,%rdx
    183d:	48 01 d0             	add    %rdx,%rax
    1840:	48 8b 00             	mov    (%rax),%rax
    1843:	48 89 85 e8 fe ff ff 	mov    %rax,-0x118(%rbp)
    184a:	48 8b 85 e8 fe ff ff 	mov    -0x118(%rbp),%rax
    1851:	48 89 c7             	mov    %rax,%rdi
    1854:	e8 00 00 00 00       	call   1859 <executaBuscaPaciente+0x108>
    1859:	48 89 c3             	mov    %rax,%rbx
    185c:	48 8b 85 e8 fe ff ff 	mov    -0x118(%rbp),%rax
    1863:	48 89 c7             	mov    %rax,%rdi
    1866:	e8 00 00 00 00       	call   186b <executaBuscaPaciente+0x11a>
    186b:	48 89 c1             	mov    %rax,%rcx
    186e:	8b 85 d0 fe ff ff    	mov    -0x130(%rbp),%eax
    1874:	8d 50 01             	lea    0x1(%rax),%edx
    1877:	48 8d 85 60 ff ff ff 	lea    -0xa0(%rbp),%rax
    187e:	49 89 d8             	mov    %rbx,%r8
    1881:	48 8d 35 00 00 00 00 	lea    0x0(%rip),%rsi        # 1888 <executaBuscaPaciente+0x137>
    1888:	48 89 c7             	mov    %rax,%rdi
    188b:	b8 00 00 00 00       	mov    $0x0,%eax
    1890:	e8 00 00 00 00       	call   1895 <executaBuscaPaciente+0x144>
    1895:	48 8d 85 60 ff ff ff 	lea    -0xa0(%rbp),%rax
    189c:	48 89 c7             	mov    %rax,%rdi
    189f:	e8 00 00 00 00       	call   18a4 <executaBuscaPaciente+0x153>
    18a4:	48 8d 95 60 ff ff ff 	lea    -0xa0(%rbp),%rdx
    18ab:	48 8b 85 e0 fe ff ff 	mov    -0x120(%rbp),%rax
    18b2:	48 89 d6             	mov    %rdx,%rsi
    18b5:	48 89 c7             	mov    %rax,%rdi
    18b8:	e8 00 00 00 00       	call   18bd <executaBuscaPaciente+0x16c>
    18bd:	83 85 d0 fe ff ff 01 	addl   $0x1,-0x130(%rbp)
    18c4:	8b 85 cc fe ff ff    	mov    -0x134(%rbp),%eax
    18ca:	39 85 d0 fe ff ff    	cmp    %eax,-0x130(%rbp)
    18d0:	0f 8c 38 ff ff ff    	jl     180e <executaBuscaPaciente+0xbd>
    18d6:	bf 0a 00 00 00       	mov    $0xa,%edi
    18db:	e8 00 00 00 00       	call   18e0 <executaBuscaPaciente+0x18f>
    18e0:	b8 00 00 00 00       	mov    $0x0,%eax
    18e5:	e8 00 00 00 00       	call   18ea <executaBuscaPaciente+0x199>
    18ea:	89 85 d4 fe ff ff    	mov    %eax,-0x12c(%rbp)
    18f0:	83 bd d4 fe ff ff 01 	cmpl   $0x1,-0x12c(%rbp)
    18f7:	75 41                	jne    193a <executaBuscaPaciente+0x1e9>
    18f9:	8b 85 cc fe ff ff    	mov    -0x134(%rbp),%eax
    18ff:	85 c0                	test   %eax,%eax
    1901:	7e 37                	jle    193a <executaBuscaPaciente+0x1e9>
    1903:	bf 0a 00 00 00       	mov    $0xa,%edi
    1908:	e8 00 00 00 00       	call   190d <executaBuscaPaciente+0x1bc>
    190d:	48 8b b5 e0 fe ff ff 	mov    -0x120(%rbp),%rsi
    1914:	48 8b 85 b0 fe ff ff 	mov    -0x150(%rbp),%rax
    191b:	4c 8d 05 00 00 00 00 	lea    0x0(%rip),%r8        # 1922 <executaBuscaPaciente+0x1d1>
    1922:	48 8d 0d 00 00 00 00 	lea    0x0(%rip),%rcx        # 1929 <executaBuscaPaciente+0x1d8>
    1929:	48 8d 15 00 00 00 00 	lea    0x0(%rip),%rdx        # 1930 <executaBuscaPaciente+0x1df>
    1930:	48 89 c7             	mov    %rax,%rdi
    1933:	e8 00 00 00 00       	call   1938 <executaBuscaPaciente+0x1e7>
    1938:	eb 18                	jmp    1952 <executaBuscaPaciente+0x201>
    193a:	83 bd d4 fe ff ff 02 	cmpl   $0x2,-0x12c(%rbp)
    1941:	75 ad                	jne    18f0 <executaBuscaPaciente+0x19f>
    1943:	48 8b 85 e0 fe ff ff 	mov    -0x120(%rbp),%rax
    194a:	48 89 c7             	mov    %rax,%rdi
    194d:	e8 00 00 00 00       	call   1952 <executaBuscaPaciente+0x201>
    1952:	48 8b 85 d8 fe ff ff 	mov    -0x128(%rbp),%rax
    1959:	48 89 c7             	mov    %rax,%rdi
    195c:	e8 00 00 00 00       	call   1961 <executaBuscaPaciente+0x210>
    1961:	90                   	nop
    1962:	48 8b 45 e8          	mov    -0x18(%rbp),%rax
    1966:	64 48 33 04 25 28 00 	xor    %fs:0x28,%rax
    196d:	00 00 
    196f:	74 05                	je     1976 <executaBuscaPaciente+0x225>
    1971:	e8 00 00 00 00       	call   1976 <executaBuscaPaciente+0x225>
    1976:	48 81 c4 48 01 00 00 	add    $0x148,%rsp
    197d:	5b                   	pop    %rbx
    197e:	5d                   	pop    %rbp
    197f:	c3                   	ret    

0000000000001980 <executaRelatorioGeral>:
    1980:	f3 0f 1e fa          	endbr64 
    1984:	55                   	push   %rbp
    1985:	48 89 e5             	mov    %rsp,%rbp
    1988:	53                   	push   %rbx
    1989:	48 83 ec 78          	sub    $0x78,%rsp
    198d:	48 89 7d 88          	mov    %rdi,-0x78(%rbp)
    1991:	48 89 75 80          	mov    %rsi,-0x80(%rbp)
    1995:	48 8b 45 88          	mov    -0x78(%rbp),%rax
    1999:	8b 40 28             	mov    0x28(%rax),%eax
    199c:	89 45 c0             	mov    %eax,-0x40(%rbp)
    199f:	c7 45 90 00 00 00 00 	movl   $0x0,-0x70(%rbp)
    19a6:	c7 45 94 00 00 00 00 	movl   $0x0,-0x6c(%rbp)
    19ad:	c7 45 98 00 00 00 00 	movl   $0x0,-0x68(%rbp)
    19b4:	c7 45 9c 00 00 00 00 	movl   $0x0,-0x64(%rbp)
    19bb:	c7 45 a0 00 00 00 00 	movl   $0x0,-0x60(%rbp)
    19c2:	c7 45 a4 00 00 00 00 	movl   $0x0,-0x5c(%rbp)
    19c9:	c7 45 a8 00 00 00 00 	movl   $0x0,-0x58(%rbp)
    19d0:	c7 45 ac 00 00 00 00 	movl   $0x0,-0x54(%rbp)
    19d7:	c7 45 b0 00 00 00 00 	movl   $0x0,-0x50(%rbp)
    19de:	ba e7 07 00 00       	mov    $0x7e7,%edx
    19e3:	be 0b 00 00 00       	mov    $0xb,%esi
    19e8:	bf 09 00 00 00       	mov    $0x9,%edi
    19ed:	e8 00 00 00 00       	call   19f2 <executaRelatorioGeral+0x72>
    19f2:	48 89 45 c8          	mov    %rax,-0x38(%rbp)
    19f6:	c7 45 b4 00 00 00 00 	movl   $0x0,-0x4c(%rbp)
    19fd:	e9 76 01 00 00       	jmp    1b78 <executaRelatorioGeral+0x1f8>
    1a02:	48 8b 45 88          	mov    -0x78(%rbp),%rax
    1a06:	48 8b 40 20          	mov    0x20(%rax),%rax
    1a0a:	8b 55 b4             	mov    -0x4c(%rbp),%edx
    1a0d:	48 63 d2             	movslq %edx,%rdx
    1a10:	48 c1 e2 03          	shl    $0x3,%rdx
    1a14:	48 01 d0             	add    %rdx,%rax
    1a17:	48 8b 00             	mov    (%rax),%rax
    1a1a:	48 89 45 d8          	mov    %rax,-0x28(%rbp)
    1a1e:	48 8b 45 d8          	mov    -0x28(%rbp),%rax
    1a22:	48 89 c7             	mov    %rax,%rdi
    1a25:	e8 00 00 00 00       	call   1a2a <executaRelatorioGeral+0xaa>
    1a2a:	85 c0                	test   %eax,%eax
    1a2c:	7e 04                	jle    1a32 <executaRelatorioGeral+0xb2>
    1a2e:	83 45 90 01          	addl   $0x1,-0x70(%rbp)
    1a32:	48 8b 55 c8          	mov    -0x38(%rbp),%rdx
    1a36:	48 8b 45 d8          	mov    -0x28(%rbp),%rax
    1a3a:	48 89 d6             	mov    %rdx,%rsi
    1a3d:	48 89 c7             	mov    %rax,%rdi
    1a40:	e8 00 00 00 00       	call   1a45 <executaRelatorioGeral+0xc5>
    1a45:	01 45 94             	add    %eax,-0x6c(%rbp)
    1a48:	48 8b 45 d8          	mov    -0x28(%rbp),%rax
    1a4c:	48 8d 35 00 00 00 00 	lea    0x0(%rip),%rsi        # 1a53 <executaRelatorioGeral+0xd3>
    1a53:	48 89 c7             	mov    %rax,%rdi
    1a56:	e8 00 00 00 00       	call   1a5b <executaRelatorioGeral+0xdb>
    1a5b:	01 45 98             	add    %eax,-0x68(%rbp)
    1a5e:	48 8b 45 d8          	mov    -0x28(%rbp),%rax
    1a62:	48 8d 35 00 00 00 00 	lea    0x0(%rip),%rsi        # 1a69 <executaRelatorioGeral+0xe9>
    1a69:	48 89 c7             	mov    %rax,%rdi
    1a6c:	e8 00 00 00 00       	call   1a71 <executaRelatorioGeral+0xf1>
    1a71:	01 45 9c             	add    %eax,-0x64(%rbp)
    1a74:	48 8b 45 d8          	mov    -0x28(%rbp),%rax
    1a78:	48 8d 35 00 00 00 00 	lea    0x0(%rip),%rsi        # 1a7f <executaRelatorioGeral+0xff>
    1a7f:	48 89 c7             	mov    %rax,%rdi
    1a82:	e8 00 00 00 00       	call   1a87 <executaRelatorioGeral+0x107>
    1a87:	01 45 a0             	add    %eax,-0x60(%rbp)
    1a8a:	c7 45 b8 00 00 00 00 	movl   $0x0,-0x48(%rbp)
    1a91:	e9 c9 00 00 00       	jmp    1b5f <executaRelatorioGeral+0x1df>
    1a96:	48 8b 45 88          	mov    -0x78(%rbp),%rax
    1a9a:	48 8b 58 40          	mov    0x40(%rax),%rbx
    1a9e:	48 8b 45 d8          	mov    -0x28(%rbp),%rax
    1aa2:	48 89 c7             	mov    %rax,%rdi
    1aa5:	e8 00 00 00 00       	call   1aaa <executaRelatorioGeral+0x12a>
    1aaa:	8b 55 b8             	mov    -0x48(%rbp),%edx
    1aad:	48 63 d2             	movslq %edx,%rdx
    1ab0:	48 c1 e2 02          	shl    $0x2,%rdx
    1ab4:	48 01 d0             	add    %rdx,%rax
    1ab7:	8b 00                	mov    (%rax),%eax
    1ab9:	48 98                	cltq   
    1abb:	48 c1 e0 03          	shl    $0x3,%rax
    1abf:	48 01 d8             	add    %rbx,%rax
    1ac2:	48 8b 00             	mov    (%rax),%rax
    1ac5:	48 89 45 e0          	mov    %rax,-0x20(%rbp)
    1ac9:	c7 45 bc 00 00 00 00 	movl   $0x0,-0x44(%rbp)
    1ad0:	eb 74                	jmp    1b46 <executaRelatorioGeral+0x1c6>
    1ad2:	48 8b 45 88          	mov    -0x78(%rbp),%rax
    1ad6:	48 8b 58 30          	mov    0x30(%rax),%rbx
    1ada:	48 8b 45 e0          	mov    -0x20(%rbp),%rax
    1ade:	48 89 c7             	mov    %rax,%rdi
    1ae1:	e8 00 00 00 00       	call   1ae6 <executaRelatorioGeral+0x166>
    1ae6:	8b 55 bc             	mov    -0x44(%rbp),%edx
    1ae9:	48 63 d2             	movslq %edx,%rdx
    1aec:	48 c1 e2 02          	shl    $0x2,%rdx
    1af0:	48 01 d0             	add    %rdx,%rax
    1af3:	8b 00                	mov    (%rax),%eax
    1af5:	48 98                	cltq   
    1af7:	48 c1 e0 03          	shl    $0x3,%rax
    1afb:	48 01 d8             	add    %rbx,%rax
    1afe:	48 8b 00             	mov    (%rax),%rax
    1b01:	48 89 45 e8          	mov    %rax,-0x18(%rbp)
    1b05:	48 8b 45 e8          	mov    -0x18(%rbp),%rax
    1b09:	48 89 c7             	mov    %rax,%rdi
    1b0c:	e8 00 00 00 00       	call   1b11 <executaRelatorioGeral+0x191>
    1b11:	01 45 a4             	add    %eax,-0x5c(%rbp)
    1b14:	83 45 a8 01          	addl   $0x1,-0x58(%rbp)
    1b18:	48 8b 45 e8          	mov    -0x18(%rbp),%rax
    1b1c:	48 89 c7             	mov    %rax,%rdi
    1b1f:	e8 00 00 00 00       	call   1b24 <executaRelatorioGeral+0x1a4>
    1b24:	85 c0                	test   %eax,%eax
    1b26:	74 06                	je     1b2e <executaRelatorioGeral+0x1ae>
    1b28:	83 45 ac 01          	addl   $0x1,-0x54(%rbp)
    1b2c:	eb 14                	jmp    1b42 <executaRelatorioGeral+0x1c2>
    1b2e:	48 8b 45 e8          	mov    -0x18(%rbp),%rax
    1b32:	48 89 c7             	mov    %rax,%rdi
    1b35:	e8 00 00 00 00       	call   1b3a <executaRelatorioGeral+0x1ba>
    1b3a:	85 c0                	test   %eax,%eax
    1b3c:	74 04                	je     1b42 <executaRelatorioGeral+0x1c2>
    1b3e:	83 45 b0 01          	addl   $0x1,-0x50(%rbp)
    1b42:	83 45 bc 01          	addl   $0x1,-0x44(%rbp)
    1b46:	48 8b 45 e0          	mov    -0x20(%rbp),%rax
    1b4a:	48 89 c7             	mov    %rax,%rdi
    1b4d:	e8 00 00 00 00       	call   1b52 <executaRelatorioGeral+0x1d2>
    1b52:	39 45 bc             	cmp    %eax,-0x44(%rbp)
    1b55:	0f 8c 77 ff ff ff    	jl     1ad2 <executaRelatorioGeral+0x152>
    1b5b:	83 45 b8 01          	addl   $0x1,-0x48(%rbp)
    1b5f:	48 8b 45 d8          	mov    -0x28(%rbp),%rax
    1b63:	48 89 c7             	mov    %rax,%rdi
    1b66:	e8 00 00 00 00       	call   1b6b <executaRelatorioGeral+0x1eb>
    1b6b:	39 45 b8             	cmp    %eax,-0x48(%rbp)
    1b6e:	0f 8c 22 ff ff ff    	jl     1a96 <executaRelatorioGeral+0x116>
    1b74:	83 45 b4 01          	addl   $0x1,-0x4c(%rbp)
    1b78:	8b 45 b4             	mov    -0x4c(%rbp),%eax
    1b7b:	3b 45 c0             	cmp    -0x40(%rbp),%eax
    1b7e:	0f 8c 7e fe ff ff    	jl     1a02 <executaRelatorioGeral+0x82>
    1b84:	8b 45 94             	mov    -0x6c(%rbp),%eax
    1b87:	99                   	cltd   
    1b88:	f7 7d c0             	idivl  -0x40(%rbp)
    1b8b:	89 45 94             	mov    %eax,-0x6c(%rbp)
    1b8e:	8b 45 a4             	mov    -0x5c(%rbp),%eax
    1b91:	99                   	cltd   
    1b92:	f7 7d a8             	idivl  -0x58(%rbp)
    1b95:	89 45 a4             	mov    %eax,-0x5c(%rbp)
    1b98:	44 8b 4d a4          	mov    -0x5c(%rbp),%r9d
    1b9c:	44 8b 45 a0          	mov    -0x60(%rbp),%r8d
    1ba0:	8b 4d 9c             	mov    -0x64(%rbp),%ecx
    1ba3:	8b 55 98             	mov    -0x68(%rbp),%edx
    1ba6:	8b 75 94             	mov    -0x6c(%rbp),%esi
    1ba9:	8b 45 90             	mov    -0x70(%rbp),%eax
    1bac:	48 83 ec 08          	sub    $0x8,%rsp
    1bb0:	8b 7d b0             	mov    -0x50(%rbp),%edi
    1bb3:	57                   	push   %rdi
    1bb4:	8b 7d ac             	mov    -0x54(%rbp),%edi
    1bb7:	57                   	push   %rdi
    1bb8:	8b 7d a8             	mov    -0x58(%rbp),%edi
    1bbb:	57                   	push   %rdi
    1bbc:	89 c7                	mov    %eax,%edi
    1bbe:	e8 00 00 00 00       	call   1bc3 <executaRelatorioGeral+0x243>
    1bc3:	48 83 c4 20          	add    $0x20,%rsp
    1bc7:	48 89 45 d0          	mov    %rax,-0x30(%rbp)
    1bcb:	48 8b 45 d0          	mov    -0x30(%rbp),%rax
    1bcf:	48 89 c7             	mov    %rax,%rdi
    1bd2:	e8 00 00 00 00       	call   1bd7 <executaRelatorioGeral+0x257>
    1bd7:	b8 00 00 00 00       	mov    $0x0,%eax
    1bdc:	e8 00 00 00 00       	call   1be1 <executaRelatorioGeral+0x261>
    1be1:	89 45 c4             	mov    %eax,-0x3c(%rbp)
    1be4:	83 7d c4 01          	cmpl   $0x1,-0x3c(%rbp)
    1be8:	75 31                	jne    1c1b <executaRelatorioGeral+0x29b>
    1bea:	bf 0b 00 00 00       	mov    $0xb,%edi
    1bef:	e8 00 00 00 00       	call   1bf4 <executaRelatorioGeral+0x274>
    1bf4:	48 8b 75 d0          	mov    -0x30(%rbp),%rsi
    1bf8:	48 8b 45 80          	mov    -0x80(%rbp),%rax
    1bfc:	4c 8d 05 00 00 00 00 	lea    0x0(%rip),%r8        # 1c03 <executaRelatorioGeral+0x283>
    1c03:	48 8d 0d 00 00 00 00 	lea    0x0(%rip),%rcx        # 1c0a <executaRelatorioGeral+0x28a>
    1c0a:	48 8d 15 00 00 00 00 	lea    0x0(%rip),%rdx        # 1c11 <executaRelatorioGeral+0x291>
    1c11:	48 89 c7             	mov    %rax,%rdi
    1c14:	e8 00 00 00 00       	call   1c19 <executaRelatorioGeral+0x299>
    1c19:	eb 12                	jmp    1c2d <executaRelatorioGeral+0x2ad>
    1c1b:	83 7d c4 02          	cmpl   $0x2,-0x3c(%rbp)
    1c1f:	75 c3                	jne    1be4 <executaRelatorioGeral+0x264>
    1c21:	48 8b 45 d0          	mov    -0x30(%rbp),%rax
    1c25:	48 89 c7             	mov    %rax,%rdi
    1c28:	e8 00 00 00 00       	call   1c2d <executaRelatorioGeral+0x2ad>
    1c2d:	48 8b 45 c8          	mov    -0x38(%rbp),%rax
    1c31:	48 89 c7             	mov    %rax,%rdi
    1c34:	e8 00 00 00 00       	call   1c39 <executaRelatorioGeral+0x2b9>
    1c39:	90                   	nop
    1c3a:	48 8b 5d f8          	mov    -0x8(%rbp),%rbx
    1c3e:	c9                   	leave  
    1c3f:	c3                   	ret    

0000000000001c40 <InicializaSade>:
    1c40:	f3 0f 1e fa          	endbr64 
    1c44:	55                   	push   %rbp
    1c45:	48 89 e5             	mov    %rsp,%rbp
    1c48:	48 81 ec 70 08 00 00 	sub    $0x870,%rsp
    1c4f:	48 89 bd 98 f7 ff ff 	mov    %rdi,-0x868(%rbp)
    1c56:	64 48 8b 04 25 28 00 	mov    %fs:0x28,%rax
    1c5d:	00 00 
    1c5f:	48 89 45 f8          	mov    %rax,-0x8(%rbp)
    1c63:	31 c0                	xor    %eax,%eax
    1c65:	48 8d 85 10 fc ff ff 	lea    -0x3f0(%rbp),%rax
    1c6c:	48 89 c7             	mov    %rax,%rdi
    1c6f:	e8 00 00 00 00       	call   1c74 <InicializaSade+0x34>
    1c74:	48 8b 95 98 f7 ff ff 	mov    -0x868(%rbp),%rdx
    1c7b:	48 8d 85 20 f8 ff ff 	lea    -0x7e0(%rbp),%rax
    1c82:	48 89 d6             	mov    %rdx,%rsi
    1c85:	48 89 c7             	mov    %rax,%rdi
    1c88:	e8 00 00 00 00       	call   1c8d <InicializaSade+0x4d>
    1c8d:	48 8d 85 20 f8 ff ff 	lea    -0x7e0(%rbp),%rax
    1c94:	48 c7 c1 ff ff ff ff 	mov    $0xffffffffffffffff,%rcx
    1c9b:	48 89 c2             	mov    %rax,%rdx
    1c9e:	b8 00 00 00 00       	mov    $0x0,%eax
    1ca3:	48 89 d7             	mov    %rdx,%rdi
    1ca6:	f2 ae                	repnz scas %es:(%rdi),%al
    1ca8:	48 89 c8             	mov    %rcx,%rax
    1cab:	48 f7 d0             	not    %rax
    1cae:	48 8d 50 ff          	lea    -0x1(%rax),%rdx
    1cb2:	48 8d 85 20 f8 ff ff 	lea    -0x7e0(%rbp),%rax
    1cb9:	48 01 d0             	add    %rdx,%rax
    1cbc:	66 c7 00 2f 00       	movw   $0x2f,(%rax)
    1cc1:	48 8d 95 10 fc ff ff 	lea    -0x3f0(%rbp),%rdx
    1cc8:	48 8d 85 20 f8 ff ff 	lea    -0x7e0(%rbp),%rax
    1ccf:	48 89 d6             	mov    %rdx,%rsi
    1cd2:	48 89 c7             	mov    %rax,%rdi
    1cd5:	e8 00 00 00 00       	call   1cda <InicializaSade+0x9a>
    1cda:	48 8b 85 98 f7 ff ff 	mov    -0x868(%rbp),%rax
    1ce1:	48 c7 c1 ff ff ff ff 	mov    $0xffffffffffffffff,%rcx
    1ce8:	48 89 c2             	mov    %rax,%rdx
    1ceb:	b8 00 00 00 00       	mov    $0x0,%eax
    1cf0:	48 89 d7             	mov    %rdx,%rdi
    1cf3:	f2 ae                	repnz scas %es:(%rdi),%al
    1cf5:	48 89 c8             	mov    %rcx,%rax
    1cf8:	48 f7 d0             	not    %rax
    1cfb:	48 8d 50 ff          	lea    -0x1(%rax),%rdx
    1cff:	48 8b 85 98 f7 ff ff 	mov    -0x868(%rbp),%rax
    1d06:	48 01 d0             	add    %rdx,%rax
    1d09:	c7 00 2f 73 61 69    	movl   $0x6961732f,(%rax)
    1d0f:	66 c7 40 04 64 61    	movw   $0x6164,0x4(%rax)
    1d15:	c6 40 06 00          	movb   $0x0,0x6(%rax)
    1d19:	b8 00 00 00 00       	mov    $0x0,%eax
    1d1e:	e8 00 00 00 00       	call   1d23 <InicializaSade+0xe3>
    1d23:	48 89 85 c0 f7 ff ff 	mov    %rax,-0x840(%rbp)
    1d2a:	b8 00 00 00 00       	mov    $0x0,%eax
    1d2f:	e8 00 00 00 00       	call   1d34 <InicializaSade+0xf4>
    1d34:	48 89 85 c8 f7 ff ff 	mov    %rax,-0x838(%rbp)
    1d3b:	48 8b 95 c8 f7 ff ff 	mov    -0x838(%rbp),%rdx
    1d42:	48 8d 85 20 f8 ff ff 	lea    -0x7e0(%rbp),%rax
    1d49:	48 89 c6             	mov    %rax,%rsi
    1d4c:	bf 00 00 00 00       	mov    $0x0,%edi
    1d51:	e8 00 00 00 00       	call   1d56 <InicializaSade+0x116>
    1d56:	89 85 a4 f7 ff ff    	mov    %eax,-0x85c(%rbp)
    1d5c:	48 8b 95 c8 f7 ff ff 	mov    -0x838(%rbp),%rdx
    1d63:	48 8d 85 20 f8 ff ff 	lea    -0x7e0(%rbp),%rax
    1d6a:	48 89 c6             	mov    %rax,%rsi
    1d6d:	bf 01 00 00 00       	mov    $0x1,%edi
    1d72:	e8 00 00 00 00       	call   1d77 <InicializaSade+0x137>
    1d77:	89 85 a8 f7 ff ff    	mov    %eax,-0x858(%rbp)
    1d7d:	83 bd a4 f7 ff ff 00 	cmpl   $0x0,-0x85c(%rbp)
    1d84:	74 33                	je     1db9 <InicializaSade+0x179>
    1d86:	83 bd a8 f7 ff ff 00 	cmpl   $0x0,-0x858(%rbp)
    1d8d:	74 2a                	je     1db9 <InicializaSade+0x179>
    1d8f:	b8 00 00 00 00       	mov    $0x0,%eax
    1d94:	e8 00 00 00 00       	call   1d99 <InicializaSade+0x159>
    1d99:	48 89 85 d0 f7 ff ff 	mov    %rax,-0x830(%rbp)
    1da0:	48 8b 95 d0 f7 ff ff 	mov    -0x830(%rbp),%rdx
    1da7:	48 8b 85 c8 f7 ff ff 	mov    -0x838(%rbp),%rax
    1dae:	48 89 d6             	mov    %rdx,%rsi
    1db1:	48 89 c7             	mov    %rax,%rdi
    1db4:	e8 00 00 00 00       	call   1db9 <InicializaSade+0x179>
    1db9:	48 c7 85 d8 f7 ff ff 	movq   $0x0,-0x828(%rbp)
    1dc0:	00 00 00 00 
    1dc4:	c7 85 a0 f7 ff ff 00 	movl   $0x0,-0x860(%rbp)
    1dcb:	00 00 00 
    1dce:	48 c7 85 b8 f7 ff ff 	movq   $0x0,-0x848(%rbp)
    1dd5:	00 00 00 00 
    1dd9:	48 8d 95 00 f8 ff ff 	lea    -0x800(%rbp),%rdx
    1de0:	48 8d 85 e0 f7 ff ff 	lea    -0x820(%rbp),%rax
    1de7:	48 89 d6             	mov    %rdx,%rsi
    1dea:	48 89 c7             	mov    %rax,%rdi
    1ded:	e8 00 00 00 00       	call   1df2 <InicializaSade+0x1b2>
    1df2:	48 8d 95 00 f8 ff ff 	lea    -0x800(%rbp),%rdx
    1df9:	48 8d b5 e0 f7 ff ff 	lea    -0x820(%rbp),%rsi
    1e00:	48 8b 85 c8 f7 ff ff 	mov    -0x838(%rbp),%rax
    1e07:	b9 73 00 00 00       	mov    $0x73,%ecx
    1e0c:	48 89 c7             	mov    %rax,%rdi
    1e0f:	e8 00 00 00 00       	call   1e14 <InicializaSade+0x1d4>
    1e14:	89 85 ac f7 ff ff    	mov    %eax,-0x854(%rbp)
    1e1a:	83 bd ac f7 ff ff ff 	cmpl   $0xffffffff,-0x854(%rbp)
    1e21:	74 3b                	je     1e5e <InicializaSade+0x21e>
    1e23:	48 8b 85 c8 f7 ff ff 	mov    -0x838(%rbp),%rax
    1e2a:	48 8b 00             	mov    (%rax),%rax
    1e2d:	8b 95 ac f7 ff ff    	mov    -0x854(%rbp),%edx
    1e33:	48 63 d2             	movslq %edx,%rdx
    1e36:	48 c1 e2 03          	shl    $0x3,%rdx
    1e3a:	48 01 d0             	add    %rdx,%rax
    1e3d:	48 8b 00             	mov    (%rax),%rax
    1e40:	48 89 85 d8 f7 ff ff 	mov    %rax,-0x828(%rbp)
    1e47:	48 8b 85 d8 f7 ff ff 	mov    -0x828(%rbp),%rax
    1e4e:	48 89 c7             	mov    %rax,%rdi
    1e51:	e8 00 00 00 00       	call   1e56 <InicializaSade+0x216>
    1e56:	89 85 a0 f7 ff ff    	mov    %eax,-0x860(%rbp)
    1e5c:	eb 69                	jmp    1ec7 <InicializaSade+0x287>
    1e5e:	48 8d 95 00 f8 ff ff 	lea    -0x800(%rbp),%rdx
    1e65:	48 8d b5 e0 f7 ff ff 	lea    -0x820(%rbp),%rsi
    1e6c:	48 8b 85 c8 f7 ff ff 	mov    -0x838(%rbp),%rax
    1e73:	b9 6d 00 00 00       	mov    $0x6d,%ecx
    1e78:	48 89 c7             	mov    %rax,%rdi
    1e7b:	e8 00 00 00 00       	call   1e80 <InicializaSade+0x240>
    1e80:	89 85 b0 f7 ff ff    	mov    %eax,-0x850(%rbp)
    1e86:	83 bd b0 f7 ff ff ff 	cmpl   $0xffffffff,-0x850(%rbp)
    1e8d:	74 27                	je     1eb6 <InicializaSade+0x276>
    1e8f:	48 8b 85 c8 f7 ff ff 	mov    -0x838(%rbp),%rax
    1e96:	48 8b 40 10          	mov    0x10(%rax),%rax
    1e9a:	8b 95 b0 f7 ff ff    	mov    -0x850(%rbp),%edx
    1ea0:	48 63 d2             	movslq %edx,%rdx
    1ea3:	48 c1 e2 03          	shl    $0x3,%rdx
    1ea7:	48 01 d0             	add    %rdx,%rax
    1eaa:	48 8b 00             	mov    (%rax),%rax
    1ead:	48 89 85 b8 f7 ff ff 	mov    %rax,-0x848(%rbp)
    1eb4:	eb 11                	jmp    1ec7 <InicializaSade+0x287>
    1eb6:	48 8d 3d 00 00 00 00 	lea    0x0(%rip),%rdi        # 1ebd <InicializaSade+0x27d>
    1ebd:	e8 00 00 00 00       	call   1ec2 <InicializaSade+0x282>
    1ec2:	e9 12 ff ff ff       	jmp    1dd9 <InicializaSade+0x199>
    1ec7:	48 8b 95 c8 f7 ff ff 	mov    -0x838(%rbp),%rdx
    1ece:	48 8d 85 20 f8 ff ff 	lea    -0x7e0(%rbp),%rax
    1ed5:	48 89 c6             	mov    %rax,%rsi
    1ed8:	bf 02 00 00 00       	mov    $0x2,%edi
    1edd:	e8 00 00 00 00       	call   1ee2 <InicializaSade+0x2a2>
    1ee2:	48 8b 95 c8 f7 ff ff 	mov    -0x838(%rbp),%rdx
    1ee9:	48 8d 85 20 f8 ff ff 	lea    -0x7e0(%rbp),%rax
    1ef0:	48 89 c6             	mov    %rax,%rsi
    1ef3:	bf 04 00 00 00       	mov    $0x4,%edi
    1ef8:	e8 00 00 00 00       	call   1efd <InicializaSade+0x2bd>
    1efd:	48 8b 95 c8 f7 ff ff 	mov    -0x838(%rbp),%rdx
    1f04:	48 8d 85 20 f8 ff ff 	lea    -0x7e0(%rbp),%rax
    1f0b:	48 89 c6             	mov    %rax,%rsi
    1f0e:	bf 03 00 00 00       	mov    $0x3,%edi
    1f13:	e8 00 00 00 00       	call   1f18 <InicializaSade+0x2d8>
    1f18:	48 83 bd b8 f7 ff ff 	cmpq   $0x0,-0x848(%rbp)
    1f1f:	00 
    1f20:	0f 95 c0             	setne  %al
    1f23:	0f b6 d0             	movzbl %al,%edx
    1f26:	8b 85 a0 f7 ff ff    	mov    -0x860(%rbp),%eax
    1f2c:	89 d6                	mov    %edx,%esi
    1f2e:	89 c7                	mov    %eax,%edi
    1f30:	e8 00 00 00 00       	call   1f35 <InicializaSade+0x2f5>
    1f35:	89 85 b4 f7 ff ff    	mov    %eax,-0x84c(%rbp)
    1f3b:	83 bd b4 f7 ff ff 01 	cmpl   $0x1,-0x84c(%rbp)
    1f42:	75 11                	jne    1f55 <InicializaSade+0x315>
    1f44:	48 8b 85 c8 f7 ff ff 	mov    -0x838(%rbp),%rax
    1f4b:	48 89 c7             	mov    %rax,%rdi
    1f4e:	e8 00 00 00 00       	call   1f53 <InicializaSade+0x313>
    1f53:	eb c3                	jmp    1f18 <InicializaSade+0x2d8>
    1f55:	83 bd b4 f7 ff ff 02 	cmpl   $0x2,-0x84c(%rbp)
    1f5c:	75 11                	jne    1f6f <InicializaSade+0x32f>
    1f5e:	48 8b 85 c8 f7 ff ff 	mov    -0x838(%rbp),%rax
    1f65:	48 89 c7             	mov    %rax,%rdi
    1f68:	e8 00 00 00 00       	call   1f6d <InicializaSade+0x32d>
    1f6d:	eb a9                	jmp    1f18 <InicializaSade+0x2d8>
    1f6f:	83 bd b4 f7 ff ff 03 	cmpl   $0x3,-0x84c(%rbp)
    1f76:	75 11                	jne    1f89 <InicializaSade+0x349>
    1f78:	48 8b 85 c8 f7 ff ff 	mov    -0x838(%rbp),%rax
    1f7f:	48 89 c7             	mov    %rax,%rdi
    1f82:	e8 00 00 00 00       	call   1f87 <InicializaSade+0x347>
    1f87:	eb 8f                	jmp    1f18 <InicializaSade+0x2d8>
    1f89:	83 bd b4 f7 ff ff 04 	cmpl   $0x4,-0x84c(%rbp)
    1f90:	75 25                	jne    1fb7 <InicializaSade+0x377>
    1f92:	48 8b 95 b8 f7 ff ff 	mov    -0x848(%rbp),%rdx
    1f99:	48 8b 8d c0 f7 ff ff 	mov    -0x840(%rbp),%rcx
    1fa0:	48 8b 85 c8 f7 ff ff 	mov    -0x838(%rbp),%rax
    1fa7:	48 89 ce             	mov    %rcx,%rsi
    1faa:	48 89 c7             	mov    %rax,%rdi
    1fad:	e8 00 00 00 00       	call   1fb2 <InicializaSade+0x372>
    1fb2:	e9 61 ff ff ff       	jmp    1f18 <InicializaSade+0x2d8>
    1fb7:	83 bd b4 f7 ff ff 05 	cmpl   $0x5,-0x84c(%rbp)
    1fbe:	75 1e                	jne    1fde <InicializaSade+0x39e>
    1fc0:	48 8b 95 c0 f7 ff ff 	mov    -0x840(%rbp),%rdx
    1fc7:	48 8b 85 c8 f7 ff ff 	mov    -0x838(%rbp),%rax
    1fce:	48 89 d6             	mov    %rdx,%rsi
    1fd1:	48 89 c7             	mov    %rax,%rdi
    1fd4:	e8 00 00 00 00       	call   1fd9 <InicializaSade+0x399>
    1fd9:	e9 3a ff ff ff       	jmp    1f18 <InicializaSade+0x2d8>
    1fde:	83 bd b4 f7 ff ff 06 	cmpl   $0x6,-0x84c(%rbp)
    1fe5:	75 1e                	jne    2005 <InicializaSade+0x3c5>
    1fe7:	48 8b 95 c0 f7 ff ff 	mov    -0x840(%rbp),%rdx
    1fee:	48 8b 85 c8 f7 ff ff 	mov    -0x838(%rbp),%rax
    1ff5:	48 89 d6             	mov    %rdx,%rsi
    1ff8:	48 89 c7             	mov    %rax,%rdi
    1ffb:	e8 00 00 00 00       	call   2000 <InicializaSade+0x3c0>
    2000:	e9 13 ff ff ff       	jmp    1f18 <InicializaSade+0x2d8>
    2005:	83 bd b4 f7 ff ff 07 	cmpl   $0x7,-0x84c(%rbp)
    200c:	75 1e                	jne    202c <InicializaSade+0x3ec>
    200e:	48 8b 95 98 f7 ff ff 	mov    -0x868(%rbp),%rdx
    2015:	48 8b 85 c0 f7 ff ff 	mov    -0x840(%rbp),%rax
    201c:	48 89 d6             	mov    %rdx,%rsi
    201f:	48 89 c7             	mov    %rax,%rdi
    2022:	e8 00 00 00 00       	call   2027 <InicializaSade+0x3e7>
    2027:	e9 ec fe ff ff       	jmp    1f18 <InicializaSade+0x2d8>
    202c:	83 bd b4 f7 ff ff 08 	cmpl   $0x8,-0x84c(%rbp)
    2033:	74 05                	je     203a <InicializaSade+0x3fa>
    2035:	e9 de fe ff ff       	jmp    1f18 <InicializaSade+0x2d8>
    203a:	90                   	nop
    203b:	48 8b 95 c8 f7 ff ff 	mov    -0x838(%rbp),%rdx
    2042:	48 8d 85 20 f8 ff ff 	lea    -0x7e0(%rbp),%rax
    2049:	48 89 c6             	mov    %rax,%rsi
    204c:	bf 00 00 00 00       	mov    $0x0,%edi
    2051:	e8 00 00 00 00       	call   2056 <InicializaSade+0x416>
    2056:	48 8b 95 c8 f7 ff ff 	mov    -0x838(%rbp),%rdx
    205d:	48 8d 85 20 f8 ff ff 	lea    -0x7e0(%rbp),%rax
    2064:	48 89 c6             	mov    %rax,%rsi
    2067:	bf 01 00 00 00       	mov    $0x1,%edi
    206c:	e8 00 00 00 00       	call   2071 <InicializaSade+0x431>
    2071:	48 8b 95 c8 f7 ff ff 	mov    -0x838(%rbp),%rdx
    2078:	48 8d 85 20 f8 ff ff 	lea    -0x7e0(%rbp),%rax
    207f:	48 89 c6             	mov    %rax,%rsi
    2082:	bf 02 00 00 00       	mov    $0x2,%edi
    2087:	e8 00 00 00 00       	call   208c <InicializaSade+0x44c>
    208c:	48 8b 95 c8 f7 ff ff 	mov    -0x838(%rbp),%rdx
    2093:	48 8d 85 20 f8 ff ff 	lea    -0x7e0(%rbp),%rax
    209a:	48 89 c6             	mov    %rax,%rsi
    209d:	bf 04 00 00 00       	mov    $0x4,%edi
    20a2:	e8 00 00 00 00       	call   20a7 <InicializaSade+0x467>
    20a7:	48 8b 95 c8 f7 ff ff 	mov    -0x838(%rbp),%rdx
    20ae:	48 8d 85 20 f8 ff ff 	lea    -0x7e0(%rbp),%rax
    20b5:	48 89 c6             	mov    %rax,%rsi
    20b8:	bf 03 00 00 00       	mov    $0x3,%edi
    20bd:	e8 00 00 00 00       	call   20c2 <InicializaSade+0x482>
    20c2:	48 8b 85 c8 f7 ff ff 	mov    -0x838(%rbp),%rax
    20c9:	48 89 c7             	mov    %rax,%rdi
    20cc:	e8 00 00 00 00       	call   20d1 <InicializaSade+0x491>
    20d1:	48 8b 85 c0 f7 ff ff 	mov    -0x840(%rbp),%rax
    20d8:	48 89 c7             	mov    %rax,%rdi
    20db:	e8 00 00 00 00       	call   20e0 <InicializaSade+0x4a0>
    20e0:	90                   	nop
    20e1:	48 8b 45 f8          	mov    -0x8(%rbp),%rax
    20e5:	64 48 33 04 25 28 00 	xor    %fs:0x28,%rax
    20ec:	00 00 
    20ee:	74 05                	je     20f5 <InicializaSade+0x4b5>
    20f0:	e8 00 00 00 00       	call   20f5 <InicializaSade+0x4b5>
    20f5:	c9                   	leave  
    20f6:	c3                   	ret    

00000000000020f7 <criaBiopsia>:
    20f7:	f3 0f 1e fa          	endbr64 
    20fb:	55                   	push   %rbp
    20fc:	48 89 e5             	mov    %rsp,%rbp
    20ff:	48 83 ec 40          	sub    $0x40,%rsp
    2103:	48 89 7d e8          	mov    %rdi,-0x18(%rbp)
    2107:	48 89 75 e0          	mov    %rsi,-0x20(%rbp)
    210b:	89 55 dc             	mov    %edx,-0x24(%rbp)
    210e:	48 89 4d d0          	mov    %rcx,-0x30(%rbp)
    2112:	4c 89 45 c8          	mov    %r8,-0x38(%rbp)
    2116:	be 28 00 00 00       	mov    $0x28,%esi
    211b:	bf 01 00 00 00       	mov    $0x1,%edi
    2120:	e8 00 00 00 00       	call   2125 <criaBiopsia+0x2e>
    2125:	48 89 45 f8          	mov    %rax,-0x8(%rbp)
    2129:	48 8b 45 f8          	mov    -0x8(%rbp),%rax
    212d:	48 8b 55 e8          	mov    -0x18(%rbp),%rdx
    2131:	48 89 10             	mov    %rdx,(%rax)
    2134:	48 8b 45 f8          	mov    -0x8(%rbp),%rax
    2138:	48 8b 55 e0          	mov    -0x20(%rbp),%rdx
    213c:	48 89 50 08          	mov    %rdx,0x8(%rax)
    2140:	48 8b 45 f8          	mov    -0x8(%rbp),%rax
    2144:	8b 55 dc             	mov    -0x24(%rbp),%edx
    2147:	89 50 10             	mov    %edx,0x10(%rax)
    214a:	48 8b 45 f8          	mov    -0x8(%rbp),%rax
    214e:	48 8b 55 d0          	mov    -0x30(%rbp),%rdx
    2152:	48 89 50 18          	mov    %rdx,0x18(%rax)
    2156:	48 8b 45 f8          	mov    -0x8(%rbp),%rax
    215a:	48 8b 55 c8          	mov    -0x38(%rbp),%rdx
    215e:	48 89 50 20          	mov    %rdx,0x20(%rax)
    2162:	48 8b 45 f8          	mov    -0x8(%rbp),%rax
    2166:	c9                   	leave  
    2167:	c3                   	ret    

0000000000002168 <desalocaBiopsia>:
    2168:	f3 0f 1e fa          	endbr64 
    216c:	55                   	push   %rbp
    216d:	48 89 e5             	mov    %rsp,%rbp
    2170:	48 83 ec 10          	sub    $0x10,%rsp
    2174:	48 89 7d f8          	mov    %rdi,-0x8(%rbp)
    2178:	48 83 7d f8 00       	cmpq   $0x0,-0x8(%rbp)
    217d:	74 14                	je     2193 <desalocaBiopsia+0x2b>
    217f:	48 8b 45 f8          	mov    -0x8(%rbp),%rax
    2183:	48 89 c7             	mov    %rax,%rdi
    2186:	e8 00 00 00 00       	call   218b <desalocaBiopsia+0x23>
    218b:	48 c7 45 f8 00 00 00 	movq   $0x0,-0x8(%rbp)
    2192:	00 
    2193:	90                   	nop
    2194:	c9                   	leave  
    2195:	c3                   	ret    

0000000000002196 <imprimeNaTelaBiopsia>:
    2196:	f3 0f 1e fa          	endbr64 
    219a:	55                   	push   %rbp
    219b:	48 89 e5             	mov    %rsp,%rbp
    219e:	41 55                	push   %r13
    21a0:	41 54                	push   %r12
    21a2:	53                   	push   %rbx
    21a3:	48 83 ec 48          	sub    $0x48,%rsp
    21a7:	48 89 7d a8          	mov    %rdi,-0x58(%rbp)
    21ab:	64 48 8b 04 25 28 00 	mov    %fs:0x28,%rax
    21b2:	00 00 
    21b4:	48 89 45 d8          	mov    %rax,-0x28(%rbp)
    21b8:	31 c0                	xor    %eax,%eax
    21ba:	48 8b 45 a8          	mov    -0x58(%rbp),%rax
    21be:	48 89 45 c0          	mov    %rax,-0x40(%rbp)
    21c2:	48 8b 45 c0          	mov    -0x40(%rbp),%rax
    21c6:	48 8b 00             	mov    (%rax),%rax
    21c9:	48 89 c7             	mov    %rax,%rdi
    21cc:	e8 00 00 00 00       	call   21d1 <imprimeNaTelaBiopsia+0x3b>
    21d1:	48 89 c6             	mov    %rax,%rsi
    21d4:	48 8d 3d 00 00 00 00 	lea    0x0(%rip),%rdi        # 21db <imprimeNaTelaBiopsia+0x45>
    21db:	b8 00 00 00 00       	mov    $0x0,%eax
    21e0:	e8 00 00 00 00       	call   21e5 <imprimeNaTelaBiopsia+0x4f>
    21e5:	48 8b 45 c0          	mov    -0x40(%rbp),%rax
    21e9:	48 8b 00             	mov    (%rax),%rax
    21ec:	48 89 c7             	mov    %rax,%rdi
    21ef:	e8 00 00 00 00       	call   21f4 <imprimeNaTelaBiopsia+0x5e>
    21f4:	48 89 c6             	mov    %rax,%rsi
    21f7:	48 8d 3d 00 00 00 00 	lea    0x0(%rip),%rdi        # 21fe <imprimeNaTelaBiopsia+0x68>
    21fe:	b8 00 00 00 00       	mov    $0x0,%eax
    2203:	e8 00 00 00 00       	call   2208 <imprimeNaTelaBiopsia+0x72>
    2208:	48 8d 3d 00 00 00 00 	lea    0x0(%rip),%rdi        # 220f <imprimeNaTelaBiopsia+0x79>
    220f:	e8 00 00 00 00       	call   2214 <imprimeNaTelaBiopsia+0x7e>
    2214:	c7 45 bc 00 00 00 00 	movl   $0x0,-0x44(%rbp)
    221b:	e9 aa 00 00 00       	jmp    22ca <imprimeNaTelaBiopsia+0x134>
    2220:	48 8b 45 c0          	mov    -0x40(%rbp),%rax
    2224:	48 8b 40 08          	mov    0x8(%rax),%rax
    2228:	8b 55 bc             	mov    -0x44(%rbp),%edx
    222b:	48 63 d2             	movslq %edx,%rdx
    222e:	48 c1 e2 03          	shl    $0x3,%rdx
    2232:	48 01 d0             	add    %rdx,%rax
    2235:	48 8b 00             	mov    (%rax),%rax
    2238:	48 89 c7             	mov    %rax,%rdi
    223b:	e8 00 00 00 00       	call   2240 <imprimeNaTelaBiopsia+0xaa>
    2240:	41 89 c5             	mov    %eax,%r13d
    2243:	48 8b 45 c0          	mov    -0x40(%rbp),%rax
    2247:	48 8b 40 08          	mov    0x8(%rax),%rax
    224b:	8b 55 bc             	mov    -0x44(%rbp),%edx
    224e:	48 63 d2             	movslq %edx,%rdx
    2251:	48 c1 e2 03          	shl    $0x3,%rdx
    2255:	48 01 d0             	add    %rdx,%rax
    2258:	48 8b 00             	mov    (%rax),%rax
    225b:	48 89 c7             	mov    %rax,%rdi
    225e:	e8 00 00 00 00       	call   2263 <imprimeNaTelaBiopsia+0xcd>
    2263:	49 89 c4             	mov    %rax,%r12
    2266:	48 8b 45 c0          	mov    -0x40(%rbp),%rax
    226a:	48 8b 40 08          	mov    0x8(%rax),%rax
    226e:	8b 55 bc             	mov    -0x44(%rbp),%edx
    2271:	48 63 d2             	movslq %edx,%rdx
    2274:	48 c1 e2 03          	shl    $0x3,%rdx
    2278:	48 01 d0             	add    %rdx,%rax
    227b:	48 8b 00             	mov    (%rax),%rax
    227e:	48 89 c7             	mov    %rax,%rdi
    2281:	e8 00 00 00 00       	call   2286 <imprimeNaTelaBiopsia+0xf0>
    2286:	48 89 c3             	mov    %rax,%rbx
    2289:	48 8b 45 c0          	mov    -0x40(%rbp),%rax
    228d:	48 8b 40 08          	mov    0x8(%rax),%rax
    2291:	8b 55 bc             	mov    -0x44(%rbp),%edx
    2294:	48 63 d2             	movslq %edx,%rdx
    2297:	48 c1 e2 03          	shl    $0x3,%rdx
    229b:	48 01 d0             	add    %rdx,%rax
    229e:	48 8b 00             	mov    (%rax),%rax
    22a1:	48 89 c7             	mov    %rax,%rdi
    22a4:	e8 00 00 00 00       	call   22a9 <imprimeNaTelaBiopsia+0x113>
    22a9:	45 89 e8             	mov    %r13d,%r8d
    22ac:	4c 89 e1             	mov    %r12,%rcx
    22af:	48 89 da             	mov    %rbx,%rdx
    22b2:	48 89 c6             	mov    %rax,%rsi
    22b5:	48 8d 3d 00 00 00 00 	lea    0x0(%rip),%rdi        # 22bc <imprimeNaTelaBiopsia+0x126>
    22bc:	b8 00 00 00 00       	mov    $0x0,%eax
    22c1:	e8 00 00 00 00       	call   22c6 <imprimeNaTelaBiopsia+0x130>
    22c6:	83 45 bc 01          	addl   $0x1,-0x44(%rbp)
    22ca:	48 8b 45 c0          	mov    -0x40(%rbp),%rax
    22ce:	8b 40 10             	mov    0x10(%rax),%eax
    22d1:	39 45 bc             	cmp    %eax,-0x44(%rbp)
    22d4:	0f 8c 46 ff ff ff    	jl     2220 <imprimeNaTelaBiopsia+0x8a>
    22da:	48 8b 45 c0          	mov    -0x40(%rbp),%rax
    22de:	48 8b 40 18          	mov    0x18(%rax),%rax
    22e2:	48 89 c7             	mov    %rax,%rdi
    22e5:	e8 00 00 00 00       	call   22ea <imprimeNaTelaBiopsia+0x154>
    22ea:	48 89 c3             	mov    %rax,%rbx
    22ed:	48 8b 45 c0          	mov    -0x40(%rbp),%rax
    22f1:	48 8b 40 18          	mov    0x18(%rax),%rax
    22f5:	48 89 c7             	mov    %rax,%rdi
    22f8:	e8 00 00 00 00       	call   22fd <imprimeNaTelaBiopsia+0x167>
    22fd:	48 89 da             	mov    %rbx,%rdx
    2300:	48 89 c6             	mov    %rax,%rsi
    2303:	48 8d 3d 00 00 00 00 	lea    0x0(%rip),%rdi        # 230a <imprimeNaTelaBiopsia+0x174>
    230a:	b8 00 00 00 00       	mov    $0x0,%eax
    230f:	e8 00 00 00 00       	call   2314 <imprimeNaTelaBiopsia+0x17e>
    2314:	48 8b 45 c0          	mov    -0x40(%rbp),%rax
    2318:	48 8b 40 20          	mov    0x20(%rax),%rax
    231c:	48 8d 55 cc          	lea    -0x34(%rbp),%rdx
    2320:	48 89 d6             	mov    %rdx,%rsi
    2323:	48 89 c7             	mov    %rax,%rdi
    2326:	e8 00 00 00 00       	call   232b <imprimeNaTelaBiopsia+0x195>
    232b:	48 8d 45 cc          	lea    -0x34(%rbp),%rax
    232f:	48 89 c6             	mov    %rax,%rsi
    2332:	48 8d 3d 00 00 00 00 	lea    0x0(%rip),%rdi        # 2339 <imprimeNaTelaBiopsia+0x1a3>
    2339:	b8 00 00 00 00       	mov    $0x0,%eax
    233e:	e8 00 00 00 00       	call   2343 <imprimeNaTelaBiopsia+0x1ad>
    2343:	90                   	nop
    2344:	48 8b 45 d8          	mov    -0x28(%rbp),%rax
    2348:	64 48 33 04 25 28 00 	xor    %fs:0x28,%rax
    234f:	00 00 
    2351:	74 05                	je     2358 <imprimeNaTelaBiopsia+0x1c2>
    2353:	e8 00 00 00 00       	call   2358 <imprimeNaTelaBiopsia+0x1c2>
    2358:	48 83 c4 48          	add    $0x48,%rsp
    235c:	5b                   	pop    %rbx
    235d:	41 5c                	pop    %r12
    235f:	41 5d                	pop    %r13
    2361:	5d                   	pop    %rbp
    2362:	c3                   	ret    

0000000000002363 <imprimeEmArquivoBiopsia>:
    2363:	f3 0f 1e fa          	endbr64 
    2367:	55                   	push   %rbp
    2368:	48 89 e5             	mov    %rsp,%rbp
    236b:	41 55                	push   %r13
    236d:	41 54                	push   %r12
    236f:	53                   	push   %rbx
    2370:	48 81 ec 38 04 00 00 	sub    $0x438,%rsp
    2377:	48 89 bd b8 fb ff ff 	mov    %rdi,-0x448(%rbp)
    237e:	48 89 b5 b0 fb ff ff 	mov    %rsi,-0x450(%rbp)
    2385:	64 48 8b 04 25 28 00 	mov    %fs:0x28,%rax
    238c:	00 00 
    238e:	48 89 45 d8          	mov    %rax,-0x28(%rbp)
    2392:	31 c0                	xor    %eax,%eax
    2394:	48 8b 95 b0 fb ff ff 	mov    -0x450(%rbp),%rdx
    239b:	48 8d 85 f0 fb ff ff 	lea    -0x410(%rbp),%rax
    23a2:	48 8d 0d 00 00 00 00 	lea    0x0(%rip),%rcx        # 23a9 <imprimeEmArquivoBiopsia+0x46>
    23a9:	48 8d 35 00 00 00 00 	lea    0x0(%rip),%rsi        # 23b0 <imprimeEmArquivoBiopsia+0x4d>
    23b0:	48 89 c7             	mov    %rax,%rdi
    23b3:	b8 00 00 00 00       	mov    $0x0,%eax
    23b8:	e8 00 00 00 00       	call   23bd <imprimeEmArquivoBiopsia+0x5a>
    23bd:	48 8d 85 f0 fb ff ff 	lea    -0x410(%rbp),%rax
    23c4:	48 8d 35 00 00 00 00 	lea    0x0(%rip),%rsi        # 23cb <imprimeEmArquivoBiopsia+0x68>
    23cb:	48 89 c7             	mov    %rax,%rdi
    23ce:	e8 00 00 00 00       	call   23d3 <imprimeEmArquivoBiopsia+0x70>
    23d3:	48 89 85 d0 fb ff ff 	mov    %rax,-0x430(%rbp)
    23da:	48 8b 85 b8 fb ff ff 	mov    -0x448(%rbp),%rax
    23e1:	48 89 85 d8 fb ff ff 	mov    %rax,-0x428(%rbp)
    23e8:	48 8b 85 d8 fb ff ff 	mov    -0x428(%rbp),%rax
    23ef:	48 8b 00             	mov    (%rax),%rax
    23f2:	48 89 c7             	mov    %rax,%rdi
    23f5:	e8 00 00 00 00       	call   23fa <imprimeEmArquivoBiopsia+0x97>
    23fa:	48 89 c2             	mov    %rax,%rdx
    23fd:	48 8b 85 d0 fb ff ff 	mov    -0x430(%rbp),%rax
    2404:	48 8d 35 00 00 00 00 	lea    0x0(%rip),%rsi        # 240b <imprimeEmArquivoBiopsia+0xa8>
    240b:	48 89 c7             	mov    %rax,%rdi
    240e:	b8 00 00 00 00       	mov    $0x0,%eax
    2413:	e8 00 00 00 00       	call   2418 <imprimeEmArquivoBiopsia+0xb5>
    2418:	48 8b 85 d8 fb ff ff 	mov    -0x428(%rbp),%rax
    241f:	48 8b 00             	mov    (%rax),%rax
    2422:	48 89 c7             	mov    %rax,%rdi
    2425:	e8 00 00 00 00       	call   242a <imprimeEmArquivoBiopsia+0xc7>
    242a:	48 89 c2             	mov    %rax,%rdx
    242d:	48 8b 85 d0 fb ff ff 	mov    -0x430(%rbp),%rax
    2434:	48 8d 35 00 00 00 00 	lea    0x0(%rip),%rsi        # 243b <imprimeEmArquivoBiopsia+0xd8>
    243b:	48 89 c7             	mov    %rax,%rdi
    243e:	b8 00 00 00 00       	mov    $0x0,%eax
    2443:	e8 00 00 00 00       	call   2448 <imprimeEmArquivoBiopsia+0xe5>
    2448:	48 8b 85 d0 fb ff ff 	mov    -0x430(%rbp),%rax
    244f:	48 89 c1             	mov    %rax,%rcx
    2452:	ba 27 00 00 00       	mov    $0x27,%edx
    2457:	be 01 00 00 00       	mov    $0x1,%esi
    245c:	48 8d 3d 00 00 00 00 	lea    0x0(%rip),%rdi        # 2463 <imprimeEmArquivoBiopsia+0x100>
    2463:	e8 00 00 00 00       	call   2468 <imprimeEmArquivoBiopsia+0x105>
    2468:	c7 85 cc fb ff ff 00 	movl   $0x0,-0x434(%rbp)
    246f:	00 00 00 
    2472:	e9 cf 00 00 00       	jmp    2546 <imprimeEmArquivoBiopsia+0x1e3>
    2477:	48 8b 85 d8 fb ff ff 	mov    -0x428(%rbp),%rax
    247e:	48 8b 40 08          	mov    0x8(%rax),%rax
    2482:	8b 95 cc fb ff ff    	mov    -0x434(%rbp),%edx
    2488:	48 63 d2             	movslq %edx,%rdx
    248b:	48 c1 e2 03          	shl    $0x3,%rdx
    248f:	48 01 d0             	add    %rdx,%rax
    2492:	48 8b 00             	mov    (%rax),%rax
    2495:	48 89 c7             	mov    %rax,%rdi
    2498:	e8 00 00 00 00       	call   249d <imprimeEmArquivoBiopsia+0x13a>
    249d:	41 89 c5             	mov    %eax,%r13d
    24a0:	48 8b 85 d8 fb ff ff 	mov    -0x428(%rbp),%rax
    24a7:	48 8b 40 08          	mov    0x8(%rax),%rax
    24ab:	8b 95 cc fb ff ff    	mov    -0x434(%rbp),%edx
    24b1:	48 63 d2             	movslq %edx,%rdx
    24b4:	48 c1 e2 03          	shl    $0x3,%rdx
    24b8:	48 01 d0             	add    %rdx,%rax
    24bb:	48 8b 00             	mov    (%rax),%rax
    24be:	48 89 c7             	mov    %rax,%rdi
    24c1:	e8 00 00 00 00       	call   24c6 <imprimeEmArquivoBiopsia+0x163>
    24c6:	49 89 c4             	mov    %rax,%r12
    24c9:	48 8b 85 d8 fb ff ff 	mov    -0x428(%rbp),%rax
    24d0:	48 8b 40 08          	mov    0x8(%rax),%rax
    24d4:	8b 95 cc fb ff ff    	mov    -0x434(%rbp),%edx
    24da:	48 63 d2             	movslq %edx,%rdx
    24dd:	48 c1 e2 03          	shl    $0x3,%rdx
    24e1:	48 01 d0             	add    %rdx,%rax
    24e4:	48 8b 00             	mov    (%rax),%rax
    24e7:	48 89 c7             	mov    %rax,%rdi
    24ea:	e8 00 00 00 00       	call   24ef <imprimeEmArquivoBiopsia+0x18c>
    24ef:	48 89 c3             	mov    %rax,%rbx
    24f2:	48 8b 85 d8 fb ff ff 	mov    -0x428(%rbp),%rax
    24f9:	48 8b 40 08          	mov    0x8(%rax),%rax
    24fd:	8b 95 cc fb ff ff    	mov    -0x434(%rbp),%edx
    2503:	48 63 d2             	movslq %edx,%rdx
    2506:	48 c1 e2 03          	shl    $0x3,%rdx
    250a:	48 01 d0             	add    %rdx,%rax
    250d:	48 8b 00             	mov    (%rax),%rax
    2510:	48 89 c7             	mov    %rax,%rdi
    2513:	e8 00 00 00 00       	call   2518 <imprimeEmArquivoBiopsia+0x1b5>
    2518:	48 89 c2             	mov    %rax,%rdx
    251b:	48 8b 85 d0 fb ff ff 	mov    -0x430(%rbp),%rax
    2522:	45 89 e9             	mov    %r13d,%r9d
    2525:	4d 89 e0             	mov    %r12,%r8
    2528:	48 89 d9             	mov    %rbx,%rcx
    252b:	48 8d 35 00 00 00 00 	lea    0x0(%rip),%rsi        # 2532 <imprimeEmArquivoBiopsia+0x1cf>
    2532:	48 89 c7             	mov    %rax,%rdi
    2535:	b8 00 00 00 00       	mov    $0x0,%eax
    253a:	e8 00 00 00 00       	call   253f <imprimeEmArquivoBiopsia+0x1dc>
    253f:	83 85 cc fb ff ff 01 	addl   $0x1,-0x434(%rbp)
    2546:	48 8b 85 d8 fb ff ff 	mov    -0x428(%rbp),%rax
    254d:	8b 40 10             	mov    0x10(%rax),%eax
    2550:	39 85 cc fb ff ff    	cmp    %eax,-0x434(%rbp)
    2556:	0f 8c 1b ff ff ff    	jl     2477 <imprimeEmArquivoBiopsia+0x114>
    255c:	48 8b 85 d8 fb ff ff 	mov    -0x428(%rbp),%rax
    2563:	48 8b 40 18          	mov    0x18(%rax),%rax
    2567:	48 89 c7             	mov    %rax,%rdi
    256a:	e8 00 00 00 00       	call   256f <imprimeEmArquivoBiopsia+0x20c>
    256f:	48 89 c3             	mov    %rax,%rbx
    2572:	48 8b 85 d8 fb ff ff 	mov    -0x428(%rbp),%rax
    2579:	48 8b 40 18          	mov    0x18(%rax),%rax
    257d:	48 89 c7             	mov    %rax,%rdi
    2580:	e8 00 00 00 00       	call   2585 <imprimeEmArquivoBiopsia+0x222>
    2585:	48 89 c2             	mov    %rax,%rdx
    2588:	48 8b 85 d0 fb ff ff 	mov    -0x430(%rbp),%rax
    258f:	48 89 d9             	mov    %rbx,%rcx
    2592:	48 8d 35 00 00 00 00 	lea    0x0(%rip),%rsi        # 2599 <imprimeEmArquivoBiopsia+0x236>
    2599:	48 89 c7             	mov    %rax,%rdi
    259c:	b8 00 00 00 00       	mov    $0x0,%eax
    25a1:	e8 00 00 00 00       	call   25a6 <imprimeEmArquivoBiopsia+0x243>
    25a6:	48 8b 85 d8 fb ff ff 	mov    -0x428(%rbp),%rax
    25ad:	48 8b 40 20          	mov    0x20(%rax),%rax
    25b1:	48 8d 95 e4 fb ff ff 	lea    -0x41c(%rbp),%rdx
    25b8:	48 89 d6             	mov    %rdx,%rsi
    25bb:	48 89 c7             	mov    %rax,%rdi
    25be:	e8 00 00 00 00       	call   25c3 <imprimeEmArquivoBiopsia+0x260>
    25c3:	48 8d 95 e4 fb ff ff 	lea    -0x41c(%rbp),%rdx
    25ca:	48 8b 85 d0 fb ff ff 	mov    -0x430(%rbp),%rax
    25d1:	48 8d 35 00 00 00 00 	lea    0x0(%rip),%rsi        # 25d8 <imprimeEmArquivoBiopsia+0x275>
    25d8:	48 89 c7             	mov    %rax,%rdi
    25db:	b8 00 00 00 00       	mov    $0x0,%eax
    25e0:	e8 00 00 00 00       	call   25e5 <imprimeEmArquivoBiopsia+0x282>
    25e5:	48 8b 85 d0 fb ff ff 	mov    -0x430(%rbp),%rax
    25ec:	48 89 c7             	mov    %rax,%rdi
    25ef:	e8 00 00 00 00       	call   25f4 <imprimeEmArquivoBiopsia+0x291>
    25f4:	90                   	nop
    25f5:	48 8b 45 d8          	mov    -0x28(%rbp),%rax
    25f9:	64 48 33 04 25 28 00 	xor    %fs:0x28,%rax
    2600:	00 00 
    2602:	74 05                	je     2609 <imprimeEmArquivoBiopsia+0x2a6>
    2604:	e8 00 00 00 00       	call   2609 <imprimeEmArquivoBiopsia+0x2a6>
    2609:	48 81 c4 38 04 00 00 	add    $0x438,%rsp
    2610:	5b                   	pop    %rbx
    2611:	41 5c                	pop    %r12
    2613:	41 5d                	pop    %r13
    2615:	5d                   	pop    %rbp
    2616:	c3                   	ret    

0000000000002617 <criaConsulta>:
    2617:	f3 0f 1e fa          	endbr64 
    261b:	55                   	push   %rbp
    261c:	48 89 e5             	mov    %rsp,%rbp
    261f:	48 83 ec 20          	sub    $0x20,%rsp
    2623:	48 89 7d e8          	mov    %rdi,-0x18(%rbp)
    2627:	89 75 e4             	mov    %esi,-0x1c(%rbp)
    262a:	be 28 00 00 00       	mov    $0x28,%esi
    262f:	bf 01 00 00 00       	mov    $0x1,%edi
    2634:	e8 00 00 00 00       	call   2639 <criaConsulta+0x22>
    2639:	48 89 45 f8          	mov    %rax,-0x8(%rbp)
    263d:	48 8b 45 f8          	mov    -0x8(%rbp),%rax
    2641:	c7 00 ff ff ff ff    	movl   $0xffffffff,(%rax)
    2647:	48 8b 45 f8          	mov    -0x8(%rbp),%rax
    264b:	48 c7 40 08 00 00 00 	movq   $0x0,0x8(%rax)
    2652:	00 
    2653:	48 8b 45 f8          	mov    -0x8(%rbp),%rax
    2657:	c7 40 10 00 00 00 00 	movl   $0x0,0x10(%rax)
    265e:	48 8b 45 f8          	mov    -0x8(%rbp),%rax
    2662:	48 8b 55 e8          	mov    -0x18(%rbp),%rdx
    2666:	48 89 50 18          	mov    %rdx,0x18(%rax)
    266a:	48 8b 45 f8          	mov    -0x8(%rbp),%rax
    266e:	8b 55 e4             	mov    -0x1c(%rbp),%edx
    2671:	89 50 20             	mov    %edx,0x20(%rax)
    2674:	48 8b 45 f8          	mov    -0x8(%rbp),%rax
    2678:	c9                   	leave  
    2679:	c3                   	ret    

000000000000267a <printConsulta>:
    267a:	f3 0f 1e fa          	endbr64 
    267e:	55                   	push   %rbp
    267f:	48 89 e5             	mov    %rsp,%rbp
    2682:	48 83 ec 20          	sub    $0x20,%rsp
    2686:	48 89 7d e8          	mov    %rdi,-0x18(%rbp)
    268a:	48 8b 45 e8          	mov    -0x18(%rbp),%rax
    268e:	8b 00                	mov    (%rax),%eax
    2690:	89 c6                	mov    %eax,%esi
    2692:	48 8d 3d 00 00 00 00 	lea    0x0(%rip),%rdi        # 2699 <printConsulta+0x1f>
    2699:	b8 00 00 00 00       	mov    $0x0,%eax
    269e:	e8 00 00 00 00       	call   26a3 <printConsulta+0x29>
    26a3:	48 8d 3d 00 00 00 00 	lea    0x0(%rip),%rdi        # 26aa <printConsulta+0x30>
    26aa:	b8 00 00 00 00       	mov    $0x0,%eax
    26af:	e8 00 00 00 00       	call   26b4 <printConsulta+0x3a>
    26b4:	48 8b 45 e8          	mov    -0x18(%rbp),%rax
    26b8:	48 8b 40 18          	mov    0x18(%rax),%rax
    26bc:	48 89 c7             	mov    %rax,%rdi
    26bf:	e8 00 00 00 00       	call   26c4 <printConsulta+0x4a>
    26c4:	bf 0a 00 00 00       	mov    $0xa,%edi
    26c9:	e8 00 00 00 00       	call   26ce <printConsulta+0x54>
    26ce:	48 8d 3d 00 00 00 00 	lea    0x0(%rip),%rdi        # 26d5 <printConsulta+0x5b>
    26d5:	b8 00 00 00 00       	mov    $0x0,%eax
    26da:	e8 00 00 00 00       	call   26df <printConsulta+0x65>
    26df:	48 8b 45 e8          	mov    -0x18(%rbp),%rax
    26e3:	8b 40 20             	mov    0x20(%rax),%eax
    26e6:	89 c6                	mov    %eax,%esi
    26e8:	48 8d 3d 00 00 00 00 	lea    0x0(%rip),%rdi        # 26ef <printConsulta+0x75>
    26ef:	b8 00 00 00 00       	mov    $0x0,%eax
    26f4:	e8 00 00 00 00       	call   26f9 <printConsulta+0x7f>
    26f9:	bf 0a 00 00 00       	mov    $0xa,%edi
    26fe:	e8 00 00 00 00       	call   2703 <printConsulta+0x89>
    2703:	48 8b 45 e8          	mov    -0x18(%rbp),%rax
    2707:	8b 40 10             	mov    0x10(%rax),%eax
    270a:	89 c6                	mov    %eax,%esi
    270c:	48 8d 3d 00 00 00 00 	lea    0x0(%rip),%rdi        # 2713 <printConsulta+0x99>
    2713:	b8 00 00 00 00       	mov    $0x0,%eax
    2718:	e8 00 00 00 00       	call   271d <printConsulta+0xa3>
    271d:	c7 45 fc 00 00 00 00 	movl   $0x0,-0x4(%rbp)
    2724:	eb 2e                	jmp    2754 <printConsulta+0xda>
    2726:	48 8b 45 e8          	mov    -0x18(%rbp),%rax
    272a:	48 8b 40 08          	mov    0x8(%rax),%rax
    272e:	8b 55 fc             	mov    -0x4(%rbp),%edx
    2731:	48 63 d2             	movslq %edx,%rdx
    2734:	48 c1 e2 02          	shl    $0x2,%rdx
    2738:	48 01 d0             	add    %rdx,%rax
    273b:	8b 00                	mov    (%rax),%eax
    273d:	89 c6                	mov    %eax,%esi
    273f:	48 8d 3d 00 00 00 00 	lea    0x0(%rip),%rdi        # 2746 <printConsulta+0xcc>
    2746:	b8 00 00 00 00       	mov    $0x0,%eax
    274b:	e8 00 00 00 00       	call   2750 <printConsulta+0xd6>
    2750:	83 45 fc 01          	addl   $0x1,-0x4(%rbp)
    2754:	48 8b 45 e8          	mov    -0x18(%rbp),%rax
    2758:	8b 40 10             	mov    0x10(%rax),%eax
    275b:	39 45 fc             	cmp    %eax,-0x4(%rbp)
    275e:	7c c6                	jl     2726 <printConsulta+0xac>
    2760:	bf 0a 00 00 00       	mov    $0xa,%edi
    2765:	e8 00 00 00 00       	call   276a <printConsulta+0xf0>
    276a:	90                   	nop
    276b:	c9                   	leave  
    276c:	c3                   	ret    

000000000000276d <escreveBinConsulta>:
    276d:	f3 0f 1e fa          	endbr64 
    2771:	55                   	push   %rbp
    2772:	48 89 e5             	mov    %rsp,%rbp
    2775:	48 83 ec 10          	sub    $0x10,%rsp
    2779:	48 89 7d f8          	mov    %rdi,-0x8(%rbp)
    277d:	48 89 75 f0          	mov    %rsi,-0x10(%rbp)
    2781:	48 8b 55 f0          	mov    -0x10(%rbp),%rdx
    2785:	48 8b 45 f8          	mov    -0x8(%rbp),%rax
    2789:	48 89 d1             	mov    %rdx,%rcx
    278c:	ba 01 00 00 00       	mov    $0x1,%edx
    2791:	be 28 00 00 00       	mov    $0x28,%esi
    2796:	48 89 c7             	mov    %rax,%rdi
    2799:	e8 00 00 00 00       	call   279e <escreveBinConsulta+0x31>
    279e:	48 8b 45 f8          	mov    -0x8(%rbp),%rax
    27a2:	48 8b 40 18          	mov    0x18(%rax),%rax
    27a6:	48 8b 55 f0          	mov    -0x10(%rbp),%rdx
    27aa:	48 89 d6             	mov    %rdx,%rsi
    27ad:	48 89 c7             	mov    %rax,%rdi
    27b0:	e8 00 00 00 00       	call   27b5 <escreveBinConsulta+0x48>
    27b5:	48 8b 45 f8          	mov    -0x8(%rbp),%rax
    27b9:	48 8d 78 10          	lea    0x10(%rax),%rdi
    27bd:	48 8b 45 f0          	mov    -0x10(%rbp),%rax
    27c1:	48 89 c1             	mov    %rax,%rcx
    27c4:	ba 01 00 00 00       	mov    $0x1,%edx
    27c9:	be 04 00 00 00       	mov    $0x4,%esi
    27ce:	e8 00 00 00 00       	call   27d3 <escreveBinConsulta+0x66>
    27d3:	48 8b 45 f8          	mov    -0x8(%rbp),%rax
    27d7:	8b 40 10             	mov    0x10(%rax),%eax
    27da:	48 63 d0             	movslq %eax,%rdx
    27dd:	48 8b 45 f8          	mov    -0x8(%rbp),%rax
    27e1:	48 8b 40 08          	mov    0x8(%rax),%rax
    27e5:	48 8b 4d f0          	mov    -0x10(%rbp),%rcx
    27e9:	be 04 00 00 00       	mov    $0x4,%esi
    27ee:	48 89 c7             	mov    %rax,%rdi
    27f1:	e8 00 00 00 00       	call   27f6 <escreveBinConsulta+0x89>
    27f6:	90                   	nop
    27f7:	c9                   	leave  
    27f8:	c3                   	ret    

00000000000027f9 <lerBinConsulta>:
    27f9:	f3 0f 1e fa          	endbr64 
    27fd:	55                   	push   %rbp
    27fe:	48 89 e5             	mov    %rsp,%rbp
    2801:	48 83 ec 20          	sub    $0x20,%rsp
    2805:	48 89 7d e8          	mov    %rdi,-0x18(%rbp)
    2809:	be 28 00 00 00       	mov    $0x28,%esi
    280e:	bf 01 00 00 00       	mov    $0x1,%edi
    2813:	e8 00 00 00 00       	call   2818 <lerBinConsulta+0x1f>
    2818:	48 89 45 f8          	mov    %rax,-0x8(%rbp)
    281c:	48 8b 55 e8          	mov    -0x18(%rbp),%rdx
    2820:	48 8b 45 f8          	mov    -0x8(%rbp),%rax
    2824:	48 89 d1             	mov    %rdx,%rcx
    2827:	ba 01 00 00 00       	mov    $0x1,%edx
    282c:	be 28 00 00 00       	mov    $0x28,%esi
    2831:	48 89 c7             	mov    %rax,%rdi
    2834:	e8 00 00 00 00       	call   2839 <lerBinConsulta+0x40>
    2839:	48 8b 45 e8          	mov    -0x18(%rbp),%rax
    283d:	48 89 c7             	mov    %rax,%rdi
    2840:	e8 00 00 00 00       	call   2845 <lerBinConsulta+0x4c>
    2845:	48 8b 55 f8          	mov    -0x8(%rbp),%rdx
    2849:	48 89 42 18          	mov    %rax,0x18(%rdx)
    284d:	48 8b 45 f8          	mov    -0x8(%rbp),%rax
    2851:	48 8d 78 10          	lea    0x10(%rax),%rdi
    2855:	48 8b 45 e8          	mov    -0x18(%rbp),%rax
    2859:	48 89 c1             	mov    %rax,%rcx
    285c:	ba 01 00 00 00       	mov    $0x1,%edx
    2861:	be 04 00 00 00       	mov    $0x4,%esi
    2866:	e8 00 00 00 00       	call   286b <lerBinConsulta+0x72>
    286b:	48 8b 45 f8          	mov    -0x8(%rbp),%rax
    286f:	8b 40 10             	mov    0x10(%rax),%eax
    2872:	48 98                	cltq   
    2874:	be 04 00 00 00       	mov    $0x4,%esi
    2879:	48 89 c7             	mov    %rax,%rdi
    287c:	e8 00 00 00 00       	call   2881 <lerBinConsulta+0x88>
    2881:	48 89 c2             	mov    %rax,%rdx
    2884:	48 8b 45 f8          	mov    -0x8(%rbp),%rax
    2888:	48 89 50 08          	mov    %rdx,0x8(%rax)
    288c:	48 8b 45 f8          	mov    -0x8(%rbp),%rax
    2890:	8b 40 10             	mov    0x10(%rax),%eax
    2893:	48 63 d0             	movslq %eax,%rdx
    2896:	48 8b 45 f8          	mov    -0x8(%rbp),%rax
    289a:	48 8b 40 08          	mov    0x8(%rax),%rax
    289e:	48 8b 4d e8          	mov    -0x18(%rbp),%rcx
    28a2:	be 04 00 00 00       	mov    $0x4,%esi
    28a7:	48 89 c7             	mov    %rax,%rdi
    28aa:	e8 00 00 00 00       	call   28af <lerBinConsulta+0xb6>
    28af:	48 8b 45 f8          	mov    -0x8(%rbp),%rax
    28b3:	c9                   	leave  
    28b4:	c3                   	ret    

00000000000028b5 <adicionarLesaoConsulta>:
    28b5:	f3 0f 1e fa          	endbr64 
    28b9:	55                   	push   %rbp
    28ba:	48 89 e5             	mov    %rsp,%rbp
    28bd:	48 83 ec 10          	sub    $0x10,%rsp
    28c1:	48 89 7d f8          	mov    %rdi,-0x8(%rbp)
    28c5:	89 75 f4             	mov    %esi,-0xc(%rbp)
    28c8:	48 8b 45 f8          	mov    -0x8(%rbp),%rax
    28cc:	8b 40 10             	mov    0x10(%rax),%eax
    28cf:	8d 50 01             	lea    0x1(%rax),%edx
    28d2:	48 8b 45 f8          	mov    -0x8(%rbp),%rax
    28d6:	89 50 10             	mov    %edx,0x10(%rax)
    28d9:	48 8b 45 f8          	mov    -0x8(%rbp),%rax
    28dd:	8b 40 10             	mov    0x10(%rax),%eax
    28e0:	48 98                	cltq   
    28e2:	48 8d 14 85 00 00 00 	lea    0x0(,%rax,4),%rdx
    28e9:	00 
    28ea:	48 8b 45 f8          	mov    -0x8(%rbp),%rax
    28ee:	48 8b 40 08          	mov    0x8(%rax),%rax
    28f2:	48 89 d6             	mov    %rdx,%rsi
    28f5:	48 89 c7             	mov    %rax,%rdi
    28f8:	e8 00 00 00 00       	call   28fd <adicionarLesaoConsulta+0x48>
    28fd:	48 8b 55 f8          	mov    -0x8(%rbp),%rdx
    2901:	48 89 42 08          	mov    %rax,0x8(%rdx)
    2905:	48 8b 45 f8          	mov    -0x8(%rbp),%rax
    2909:	48 8b 50 08          	mov    0x8(%rax),%rdx
    290d:	48 8b 45 f8          	mov    -0x8(%rbp),%rax
    2911:	8b 40 10             	mov    0x10(%rax),%eax
    2914:	48 98                	cltq   
    2916:	48 c1 e0 02          	shl    $0x2,%rax
    291a:	48 83 e8 04          	sub    $0x4,%rax
    291e:	48 01 c2             	add    %rax,%rdx
    2921:	8b 45 f4             	mov    -0xc(%rbp),%eax
    2924:	89 02                	mov    %eax,(%rdx)
    2926:	90                   	nop
    2927:	c9                   	leave  
    2928:	c3                   	ret    

0000000000002929 <obtemIdConsulta>:
    2929:	f3 0f 1e fa          	endbr64 
    292d:	55                   	push   %rbp
    292e:	48 89 e5             	mov    %rsp,%rbp
    2931:	48 89 7d f8          	mov    %rdi,-0x8(%rbp)
    2935:	48 8b 45 f8          	mov    -0x8(%rbp),%rax
    2939:	8b 00                	mov    (%rax),%eax
    293b:	5d                   	pop    %rbp
    293c:	c3                   	ret    

000000000000293d <defineIdConsulta>:
    293d:	f3 0f 1e fa          	endbr64 
    2941:	55                   	push   %rbp
    2942:	48 89 e5             	mov    %rsp,%rbp
    2945:	48 89 7d f8          	mov    %rdi,-0x8(%rbp)
    2949:	89 75 f4             	mov    %esi,-0xc(%rbp)
    294c:	48 8b 45 f8          	mov    -0x8(%rbp),%rax
    2950:	8b 55 f4             	mov    -0xc(%rbp),%edx
    2953:	89 10                	mov    %edx,(%rax)
    2955:	90                   	nop
    2956:	5d                   	pop    %rbp
    2957:	c3                   	ret    

0000000000002958 <obtemQtdAtualLesaoConsulta>:
    2958:	f3 0f 1e fa          	endbr64 
    295c:	55                   	push   %rbp
    295d:	48 89 e5             	mov    %rsp,%rbp
    2960:	48 89 7d f8          	mov    %rdi,-0x8(%rbp)
    2964:	48 8b 45 f8          	mov    -0x8(%rbp),%rax
    2968:	8b 40 10             	mov    0x10(%rax),%eax
    296b:	5d                   	pop    %rbp
    296c:	c3                   	ret    

000000000000296d <obtemIdLesoesConsulta>:
    296d:	f3 0f 1e fa          	endbr64 
    2971:	55                   	push   %rbp
    2972:	48 89 e5             	mov    %rsp,%rbp
    2975:	48 89 7d f8          	mov    %rdi,-0x8(%rbp)
    2979:	48 8b 45 f8          	mov    -0x8(%rbp),%rax
    297d:	48 8b 40 08          	mov    0x8(%rax),%rax
    2981:	5d                   	pop    %rbp
    2982:	c3                   	ret    

0000000000002983 <obtemDataConsulta>:
    2983:	f3 0f 1e fa          	endbr64 
    2987:	55                   	push   %rbp
    2988:	48 89 e5             	mov    %rsp,%rbp
    298b:	48 89 7d f8          	mov    %rdi,-0x8(%rbp)
    298f:	48 8b 45 f8          	mov    -0x8(%rbp),%rax
    2993:	48 8b 40 18          	mov    0x18(%rax),%rax
    2997:	5d                   	pop    %rbp
    2998:	c3                   	ret    

0000000000002999 <desalocaConsulta>:
    2999:	f3 0f 1e fa          	endbr64 
    299d:	55                   	push   %rbp
    299e:	48 89 e5             	mov    %rsp,%rbp
    29a1:	48 83 ec 10          	sub    $0x10,%rsp
    29a5:	48 89 7d f8          	mov    %rdi,-0x8(%rbp)
    29a9:	48 83 7d f8 00       	cmpq   $0x0,-0x8(%rbp)
    29ae:	74 4d                	je     29fd <desalocaConsulta+0x64>
    29b0:	48 8b 45 f8          	mov    -0x8(%rbp),%rax
    29b4:	48 8b 40 08          	mov    0x8(%rax),%rax
    29b8:	48 85 c0             	test   %rax,%rax
    29bb:	74 1c                	je     29d9 <desalocaConsulta+0x40>
    29bd:	48 8b 45 f8          	mov    -0x8(%rbp),%rax
    29c1:	48 8b 40 08          	mov    0x8(%rax),%rax
    29c5:	48 89 c7             	mov    %rax,%rdi
    29c8:	e8 00 00 00 00       	call   29cd <desalocaConsulta+0x34>
    29cd:	48 8b 45 f8          	mov    -0x8(%rbp),%rax
    29d1:	48 c7 40 08 00 00 00 	movq   $0x0,0x8(%rax)
    29d8:	00 
    29d9:	48 8b 45 f8          	mov    -0x8(%rbp),%rax
    29dd:	48 8b 40 18          	mov    0x18(%rax),%rax
    29e1:	48 89 c7             	mov    %rax,%rdi
    29e4:	e8 00 00 00 00       	call   29e9 <desalocaConsulta+0x50>
    29e9:	48 8b 45 f8          	mov    -0x8(%rbp),%rax
    29ed:	48 89 c7             	mov    %rax,%rdi
    29f0:	e8 00 00 00 00       	call   29f5 <desalocaConsulta+0x5c>
    29f5:	48 c7 45 f8 00 00 00 	movq   $0x0,-0x8(%rbp)
    29fc:	00 
    29fd:	90                   	nop
    29fe:	c9                   	leave  
    29ff:	c3                   	ret    

0000000000002a00 <criaData>:
    2a00:	f3 0f 1e fa          	endbr64 
    2a04:	55                   	push   %rbp
    2a05:	48 89 e5             	mov    %rsp,%rbp
    2a08:	48 83 ec 20          	sub    $0x20,%rsp
    2a0c:	89 7d ec             	mov    %edi,-0x14(%rbp)
    2a0f:	89 75 e8             	mov    %esi,-0x18(%rbp)
    2a12:	89 55 e4             	mov    %edx,-0x1c(%rbp)
    2a15:	be 0c 00 00 00       	mov    $0xc,%esi
    2a1a:	bf 01 00 00 00       	mov    $0x1,%edi
    2a1f:	e8 00 00 00 00       	call   2a24 <criaData+0x24>
    2a24:	48 89 45 f8          	mov    %rax,-0x8(%rbp)
    2a28:	48 8b 45 f8          	mov    -0x8(%rbp),%rax
    2a2c:	8b 55 ec             	mov    -0x14(%rbp),%edx
    2a2f:	89 10                	mov    %edx,(%rax)
    2a31:	48 8b 45 f8          	mov    -0x8(%rbp),%rax
    2a35:	8b 55 e8             	mov    -0x18(%rbp),%edx
    2a38:	89 50 04             	mov    %edx,0x4(%rax)
    2a3b:	48 8b 45 f8          	mov    -0x8(%rbp),%rax
    2a3f:	8b 55 e4             	mov    -0x1c(%rbp),%edx
    2a42:	89 50 08             	mov    %edx,0x8(%rax)
    2a45:	48 8b 45 f8          	mov    -0x8(%rbp),%rax
    2a49:	c9                   	leave  
    2a4a:	c3                   	ret    

0000000000002a4b <lerData>:
    2a4b:	f3 0f 1e fa          	endbr64 
    2a4f:	55                   	push   %rbp
    2a50:	48 89 e5             	mov    %rsp,%rbp
    2a53:	48 83 ec 20          	sub    $0x20,%rsp
    2a57:	64 48 8b 04 25 28 00 	mov    %fs:0x28,%rax
    2a5e:	00 00 
    2a60:	48 89 45 f8          	mov    %rax,-0x8(%rbp)
    2a64:	31 c0                	xor    %eax,%eax
    2a66:	48 8d 4d f4          	lea    -0xc(%rbp),%rcx
    2a6a:	48 8d 55 f0          	lea    -0x10(%rbp),%rdx
    2a6e:	48 8d 45 ec          	lea    -0x14(%rbp),%rax
    2a72:	48 89 c6             	mov    %rax,%rsi
    2a75:	48 8d 3d 00 00 00 00 	lea    0x0(%rip),%rdi        # 2a7c <lerData+0x31>
    2a7c:	b8 00 00 00 00       	mov    $0x0,%eax
    2a81:	e8 00 00 00 00       	call   2a86 <lerData+0x3b>
    2a86:	8b 55 f4             	mov    -0xc(%rbp),%edx
    2a89:	8b 4d f0             	mov    -0x10(%rbp),%ecx
    2a8c:	8b 45 ec             	mov    -0x14(%rbp),%eax
    2a8f:	89 ce                	mov    %ecx,%esi
    2a91:	89 c7                	mov    %eax,%edi
    2a93:	e8 00 00 00 00       	call   2a98 <lerData+0x4d>
    2a98:	48 8b 75 f8          	mov    -0x8(%rbp),%rsi
    2a9c:	64 48 33 34 25 28 00 	xor    %fs:0x28,%rsi
    2aa3:	00 00 
    2aa5:	74 05                	je     2aac <lerData+0x61>
    2aa7:	e8 00 00 00 00       	call   2aac <lerData+0x61>
    2aac:	c9                   	leave  
    2aad:	c3                   	ret    

0000000000002aae <printData>:
    2aae:	f3 0f 1e fa          	endbr64 
    2ab2:	55                   	push   %rbp
    2ab3:	48 89 e5             	mov    %rsp,%rbp
    2ab6:	48 83 ec 10          	sub    $0x10,%rsp
    2aba:	48 89 7d f8          	mov    %rdi,-0x8(%rbp)
    2abe:	48 8b 45 f8          	mov    -0x8(%rbp),%rax
    2ac2:	8b 48 08             	mov    0x8(%rax),%ecx
    2ac5:	48 8b 45 f8          	mov    -0x8(%rbp),%rax
    2ac9:	8b 50 04             	mov    0x4(%rax),%edx
    2acc:	48 8b 45 f8          	mov    -0x8(%rbp),%rax
    2ad0:	8b 00                	mov    (%rax),%eax
    2ad2:	89 c6                	mov    %eax,%esi
    2ad4:	48 8d 3d 00 00 00 00 	lea    0x0(%rip),%rdi        # 2adb <printData+0x2d>
    2adb:	b8 00 00 00 00       	mov    $0x0,%eax
    2ae0:	e8 00 00 00 00       	call   2ae5 <printData+0x37>
    2ae5:	90                   	nop
    2ae6:	c9                   	leave  
    2ae7:	c3                   	ret    

0000000000002ae8 <escreveBinData>:
    2ae8:	f3 0f 1e fa          	endbr64 
    2aec:	55                   	push   %rbp
    2aed:	48 89 e5             	mov    %rsp,%rbp
    2af0:	48 83 ec 10          	sub    $0x10,%rsp
    2af4:	48 89 7d f8          	mov    %rdi,-0x8(%rbp)
    2af8:	48 89 75 f0          	mov    %rsi,-0x10(%rbp)
    2afc:	48 8b 55 f0          	mov    -0x10(%rbp),%rdx
    2b00:	48 8b 45 f8          	mov    -0x8(%rbp),%rax
    2b04:	48 89 d1             	mov    %rdx,%rcx
    2b07:	ba 01 00 00 00       	mov    $0x1,%edx
    2b0c:	be 0c 00 00 00       	mov    $0xc,%esi
    2b11:	48 89 c7             	mov    %rax,%rdi
    2b14:	e8 00 00 00 00       	call   2b19 <escreveBinData+0x31>
    2b19:	90                   	nop
    2b1a:	c9                   	leave  
    2b1b:	c3                   	ret    

0000000000002b1c <lerBinData>:
    2b1c:	f3 0f 1e fa          	endbr64 
    2b20:	55                   	push   %rbp
    2b21:	48 89 e5             	mov    %rsp,%rbp
    2b24:	48 83 ec 20          	sub    $0x20,%rsp
    2b28:	48 89 7d e8          	mov    %rdi,-0x18(%rbp)
    2b2c:	be 0c 00 00 00       	mov    $0xc,%esi
    2b31:	bf 01 00 00 00       	mov    $0x1,%edi
    2b36:	e8 00 00 00 00       	call   2b3b <lerBinData+0x1f>
    2b3b:	48 89 45 f8          	mov    %rax,-0x8(%rbp)
    2b3f:	48 8b 55 e8          	mov    -0x18(%rbp),%rdx
    2b43:	48 8b 45 f8          	mov    -0x8(%rbp),%rax
    2b47:	48 89 d1             	mov    %rdx,%rcx
    2b4a:	ba 01 00 00 00       	mov    $0x1,%edx
    2b4f:	be 0c 00 00 00       	mov    $0xc,%esi
    2b54:	48 89 c7             	mov    %rax,%rdi
    2b57:	e8 00 00 00 00       	call   2b5c <lerBinData+0x40>
    2b5c:	48 8b 45 f8          	mov    -0x8(%rbp),%rax
    2b60:	c9                   	leave  
    2b61:	c3                   	ret    

0000000000002b62 <obtemStringData>:
    2b62:	f3 0f 1e fa          	endbr64 
    2b66:	55                   	push   %rbp
    2b67:	48 89 e5             	mov    %rsp,%rbp
    2b6a:	48 83 ec 10          	sub    $0x10,%rsp
    2b6e:	48 89 7d f8          	mov    %rdi,-0x8(%rbp)
    2b72:	48 89 75 f0          	mov    %rsi,-0x10(%rbp)
    2b76:	48 8b 45 f8          	mov    -0x8(%rbp),%rax
    2b7a:	8b 70 08             	mov    0x8(%rax),%esi
    2b7d:	48 8b 45 f8          	mov    -0x8(%rbp),%rax
    2b81:	8b 48 04             	mov    0x4(%rax),%ecx
    2b84:	48 8b 45 f8          	mov    -0x8(%rbp),%rax
    2b88:	8b 10                	mov    (%rax),%edx
    2b8a:	48 8b 45 f0          	mov    -0x10(%rbp),%rax
    2b8e:	41 89 f0             	mov    %esi,%r8d
    2b91:	48 8d 35 00 00 00 00 	lea    0x0(%rip),%rsi        # 2b98 <obtemStringData+0x36>
    2b98:	48 89 c7             	mov    %rax,%rdi
    2b9b:	b8 00 00 00 00       	mov    $0x0,%eax
    2ba0:	e8 00 00 00 00       	call   2ba5 <obtemStringData+0x43>
    2ba5:	90                   	nop
    2ba6:	c9                   	leave  
    2ba7:	c3                   	ret    

0000000000002ba8 <comparaData>:
    2ba8:	f3 0f 1e fa          	endbr64 
    2bac:	55                   	push   %rbp
    2bad:	48 89 e5             	mov    %rsp,%rbp
    2bb0:	48 89 7d f8          	mov    %rdi,-0x8(%rbp)
    2bb4:	48 89 75 f0          	mov    %rsi,-0x10(%rbp)
    2bb8:	48 8b 45 f8          	mov    -0x8(%rbp),%rax
    2bbc:	8b 50 08             	mov    0x8(%rax),%edx
    2bbf:	48 8b 45 f0          	mov    -0x10(%rbp),%rax
    2bc3:	8b 40 08             	mov    0x8(%rax),%eax
    2bc6:	39 c2                	cmp    %eax,%edx
    2bc8:	74 07                	je     2bd1 <comparaData+0x29>
    2bca:	b8 00 00 00 00       	mov    $0x0,%eax
    2bcf:	eb 35                	jmp    2c06 <comparaData+0x5e>
    2bd1:	48 8b 45 f8          	mov    -0x8(%rbp),%rax
    2bd5:	8b 50 04             	mov    0x4(%rax),%edx
    2bd8:	48 8b 45 f0          	mov    -0x10(%rbp),%rax
    2bdc:	8b 40 04             	mov    0x4(%rax),%eax
    2bdf:	39 c2                	cmp    %eax,%edx
    2be1:	74 07                	je     2bea <comparaData+0x42>
    2be3:	b8 00 00 00 00       	mov    $0x0,%eax
    2be8:	eb 1c                	jmp    2c06 <comparaData+0x5e>
    2bea:	48 8b 45 f8          	mov    -0x8(%rbp),%rax
    2bee:	8b 10                	mov    (%rax),%edx
    2bf0:	48 8b 45 f0          	mov    -0x10(%rbp),%rax
    2bf4:	8b 00                	mov    (%rax),%eax
    2bf6:	39 c2                	cmp    %eax,%edx
    2bf8:	74 07                	je     2c01 <comparaData+0x59>
    2bfa:	b8 00 00 00 00       	mov    $0x0,%eax
    2bff:	eb 05                	jmp    2c06 <comparaData+0x5e>
    2c01:	b8 01 00 00 00       	mov    $0x1,%eax
    2c06:	5d                   	pop    %rbp
    2c07:	c3                   	ret    

0000000000002c08 <calculaIdadeData>:
    2c08:	f3 0f 1e fa          	endbr64 
    2c0c:	55                   	push   %rbp
    2c0d:	48 89 e5             	mov    %rsp,%rbp
    2c10:	48 89 7d e8          	mov    %rdi,-0x18(%rbp)
    2c14:	48 89 75 e0          	mov    %rsi,-0x20(%rbp)
    2c18:	48 8b 45 e0          	mov    -0x20(%rbp),%rax
    2c1c:	8b 50 08             	mov    0x8(%rax),%edx
    2c1f:	48 8b 45 e8          	mov    -0x18(%rbp),%rax
    2c23:	8b 40 08             	mov    0x8(%rax),%eax
    2c26:	29 c2                	sub    %eax,%edx
    2c28:	89 d0                	mov    %edx,%eax
    2c2a:	89 45 fc             	mov    %eax,-0x4(%rbp)
    2c2d:	48 8b 45 e0          	mov    -0x20(%rbp),%rax
    2c31:	8b 50 04             	mov    0x4(%rax),%edx
    2c34:	48 8b 45 e8          	mov    -0x18(%rbp),%rax
    2c38:	8b 40 04             	mov    0x4(%rax),%eax
    2c3b:	39 c2                	cmp    %eax,%edx
    2c3d:	7d 06                	jge    2c45 <calculaIdadeData+0x3d>
    2c3f:	83 6d fc 01          	subl   $0x1,-0x4(%rbp)
    2c43:	eb 26                	jmp    2c6b <calculaIdadeData+0x63>
    2c45:	48 8b 45 e0          	mov    -0x20(%rbp),%rax
    2c49:	8b 50 04             	mov    0x4(%rax),%edx
    2c4c:	48 8b 45 e8          	mov    -0x18(%rbp),%rax
    2c50:	8b 40 04             	mov    0x4(%rax),%eax
    2c53:	39 c2                	cmp    %eax,%edx
    2c55:	75 14                	jne    2c6b <calculaIdadeData+0x63>
    2c57:	48 8b 45 e0          	mov    -0x20(%rbp),%rax
    2c5b:	8b 10                	mov    (%rax),%edx
    2c5d:	48 8b 45 e8          	mov    -0x18(%rbp),%rax
    2c61:	8b 00                	mov    (%rax),%eax
    2c63:	39 c2                	cmp    %eax,%edx
    2c65:	7d 04                	jge    2c6b <calculaIdadeData+0x63>
    2c67:	83 6d fc 01          	subl   $0x1,-0x4(%rbp)
    2c6b:	8b 45 fc             	mov    -0x4(%rbp),%eax
    2c6e:	5d                   	pop    %rbp
    2c6f:	c3                   	ret    

0000000000002c70 <desalocaData>:
    2c70:	f3 0f 1e fa          	endbr64 
    2c74:	55                   	push   %rbp
    2c75:	48 89 e5             	mov    %rsp,%rbp
    2c78:	48 83 ec 10          	sub    $0x10,%rsp
    2c7c:	48 89 7d f8          	mov    %rdi,-0x8(%rbp)
    2c80:	48 83 7d f8 00       	cmpq   $0x0,-0x8(%rbp)
    2c85:	74 14                	je     2c9b <desalocaData+0x2b>
    2c87:	48 8b 45 f8          	mov    -0x8(%rbp),%rax
    2c8b:	48 89 c7             	mov    %rax,%rdi
    2c8e:	e8 00 00 00 00       	call   2c93 <desalocaData+0x23>
    2c93:	48 c7 45 f8 00 00 00 	movq   $0x0,-0x8(%rbp)
    2c9a:	00 
    2c9b:	90                   	nop
    2c9c:	c9                   	leave  
    2c9d:	c3                   	ret    

0000000000002c9e <TelaLerBancoDados>:
    2c9e:	f3 0f 1e fa          	endbr64 
    2ca2:	55                   	push   %rbp
    2ca3:	48 89 e5             	mov    %rsp,%rbp
    2ca6:	48 83 ec 20          	sub    $0x20,%rsp
    2caa:	48 89 7d e8          	mov    %rdi,-0x18(%rbp)
    2cae:	48 8d 3d 00 00 00 00 	lea    0x0(%rip),%rdi        # 2cb5 <TelaLerBancoDados+0x17>
    2cb5:	e8 00 00 00 00       	call   2cba <TelaLerBancoDados+0x1c>
    2cba:	48 8d 3d 00 00 00 00 	lea    0x0(%rip),%rdi        # 2cc1 <TelaLerBancoDados+0x23>
    2cc1:	b8 00 00 00 00       	mov    $0x0,%eax
    2cc6:	e8 00 00 00 00       	call   2ccb <TelaLerBancoDados+0x2d>
    2ccb:	48 8b 45 e8          	mov    -0x18(%rbp),%rax
    2ccf:	48 89 c6             	mov    %rax,%rsi
    2cd2:	48 8d 3d 00 00 00 00 	lea    0x0(%rip),%rdi        # 2cd9 <TelaLerBancoDados+0x3b>
    2cd9:	b8 00 00 00 00       	mov    $0x0,%eax
    2cde:	e8 00 00 00 00       	call   2ce3 <TelaLerBancoDados+0x45>
    2ce3:	48 8d 3d 00 00 00 00 	lea    0x0(%rip),%rdi        # 2cea <TelaLerBancoDados+0x4c>
    2cea:	e8 00 00 00 00       	call   2cef <TelaLerBancoDados+0x51>
    2cef:	48 8b 45 e8          	mov    -0x18(%rbp),%rax
    2cf3:	48 89 c7             	mov    %rax,%rdi
    2cf6:	e8 00 00 00 00       	call   2cfb <TelaLerBancoDados+0x5d>
    2cfb:	89 45 fc             	mov    %eax,-0x4(%rbp)
    2cfe:	83 7d fc 00          	cmpl   $0x0,-0x4(%rbp)
    2d02:	7e 45                	jle    2d49 <TelaLerBancoDados+0xab>
    2d04:	8b 45 fc             	mov    -0x4(%rbp),%eax
    2d07:	48 98                	cltq   
    2d09:	48 8d 50 ff          	lea    -0x1(%rax),%rdx
    2d0d:	48 8b 45 e8          	mov    -0x18(%rbp),%rax
    2d11:	48 01 d0             	add    %rdx,%rax
    2d14:	0f b6 00             	movzbl (%rax),%eax
    2d17:	3c 2f                	cmp    $0x2f,%al
    2d19:	74 2e                	je     2d49 <TelaLerBancoDados+0xab>
    2d1b:	48 8b 45 e8          	mov    -0x18(%rbp),%rax
    2d1f:	48 c7 c1 ff ff ff ff 	mov    $0xffffffffffffffff,%rcx
    2d26:	48 89 c2             	mov    %rax,%rdx
    2d29:	b8 00 00 00 00       	mov    $0x0,%eax
    2d2e:	48 89 d7             	mov    %rdx,%rdi
    2d31:	f2 ae                	repnz scas %es:(%rdi),%al
    2d33:	48 89 c8             	mov    %rcx,%rax
    2d36:	48 f7 d0             	not    %rax
    2d39:	48 8d 50 ff          	lea    -0x1(%rax),%rdx
    2d3d:	48 8b 45 e8          	mov    -0x18(%rbp),%rax
    2d41:	48 01 d0             	add    %rdx,%rax
    2d44:	66 c7 00 2f 00       	movw   $0x2f,(%rax)
    2d49:	90                   	nop
    2d4a:	c9                   	leave  
    2d4b:	c3                   	ret    

0000000000002d4c <TelaCadastrarSecretario>:
    2d4c:	f3 0f 1e fa          	endbr64 
    2d50:	55                   	push   %rbp
    2d51:	48 89 e5             	mov    %rsp,%rbp
    2d54:	48 83 ec 10          	sub    $0x10,%rsp
    2d58:	48 8d 3d 00 00 00 00 	lea    0x0(%rip),%rdi        # 2d5f <TelaCadastrarSecretario+0x13>
    2d5f:	e8 00 00 00 00       	call   2d64 <TelaCadastrarSecretario+0x18>
    2d64:	b8 00 00 00 00       	mov    $0x0,%eax
    2d69:	e8 00 00 00 00       	call   2d6e <TelaCadastrarSecretario+0x22>
    2d6e:	48 89 45 f8          	mov    %rax,-0x8(%rbp)
    2d72:	48 8b 45 f8          	mov    -0x8(%rbp),%rax
    2d76:	c9                   	leave  
    2d77:	c3                   	ret    

0000000000002d78 <TelaCadastrarMedico>:
    2d78:	f3 0f 1e fa          	endbr64 
    2d7c:	55                   	push   %rbp
    2d7d:	48 89 e5             	mov    %rsp,%rbp
    2d80:	48 83 ec 10          	sub    $0x10,%rsp
    2d84:	48 8d 3d 00 00 00 00 	lea    0x0(%rip),%rdi        # 2d8b <TelaCadastrarMedico+0x13>
    2d8b:	e8 00 00 00 00       	call   2d90 <TelaCadastrarMedico+0x18>
    2d90:	b8 00 00 00 00       	mov    $0x0,%eax
    2d95:	e8 00 00 00 00       	call   2d9a <TelaCadastrarMedico+0x22>
    2d9a:	48 89 45 f8          	mov    %rax,-0x8(%rbp)
    2d9e:	48 8b 45 f8          	mov    -0x8(%rbp),%rax
    2da2:	c9                   	leave  
    2da3:	c3                   	ret    

0000000000002da4 <TelaCadastrarPaciente>:
    2da4:	f3 0f 1e fa          	endbr64 
    2da8:	55                   	push   %rbp
    2da9:	48 89 e5             	mov    %rsp,%rbp
    2dac:	48 83 ec 10          	sub    $0x10,%rsp
    2db0:	48 8d 3d 00 00 00 00 	lea    0x0(%rip),%rdi        # 2db7 <TelaCadastrarPaciente+0x13>
    2db7:	e8 00 00 00 00       	call   2dbc <TelaCadastrarPaciente+0x18>
    2dbc:	b8 00 00 00 00       	mov    $0x0,%eax
    2dc1:	e8 00 00 00 00       	call   2dc6 <TelaCadastrarPaciente+0x22>
    2dc6:	48 89 45 f8          	mov    %rax,-0x8(%rbp)
    2dca:	48 8b 45 f8          	mov    -0x8(%rbp),%rax
    2dce:	c9                   	leave  
    2dcf:	c3                   	ret    

0000000000002dd0 <TelaInicialConsultaMedica>:
    2dd0:	f3 0f 1e fa          	endbr64 
    2dd4:	55                   	push   %rbp
    2dd5:	48 89 e5             	mov    %rsp,%rbp
    2dd8:	48 83 ec 10          	sub    $0x10,%rsp
    2ddc:	48 89 7d f8          	mov    %rdi,-0x8(%rbp)
    2de0:	48 8d 3d 00 00 00 00 	lea    0x0(%rip),%rdi        # 2de7 <TelaInicialConsultaMedica+0x17>
    2de7:	e8 00 00 00 00       	call   2dec <TelaInicialConsultaMedica+0x1c>
    2dec:	48 8d 3d 00 00 00 00 	lea    0x0(%rip),%rdi        # 2df3 <TelaInicialConsultaMedica+0x23>
    2df3:	b8 00 00 00 00       	mov    $0x0,%eax
    2df8:	e8 00 00 00 00       	call   2dfd <TelaInicialConsultaMedica+0x2d>
    2dfd:	48 8b 45 f8          	mov    -0x8(%rbp),%rax
    2e01:	48 89 c6             	mov    %rax,%rsi
    2e04:	48 8d 3d 00 00 00 00 	lea    0x0(%rip),%rdi        # 2e0b <TelaInicialConsultaMedica+0x3b>
    2e0b:	b8 00 00 00 00       	mov    $0x0,%eax
    2e10:	e8 00 00 00 00       	call   2e15 <TelaInicialConsultaMedica+0x45>
    2e15:	90                   	nop
    2e16:	c9                   	leave  
    2e17:	c3                   	ret    

0000000000002e18 <TelaSegundaParteConsultaMedica>:
    2e18:	f3 0f 1e fa          	endbr64 
    2e1c:	55                   	push   %rbp
    2e1d:	48 89 e5             	mov    %rsp,%rbp
    2e20:	48 83 ec 20          	sub    $0x20,%rsp
    2e24:	48 89 7d e8          	mov    %rdi,-0x18(%rbp)
    2e28:	48 8d 3d 00 00 00 00 	lea    0x0(%rip),%rdi        # 2e2f <TelaSegundaParteConsultaMedica+0x17>
    2e2f:	e8 00 00 00 00       	call   2e34 <TelaSegundaParteConsultaMedica+0x1c>
    2e34:	48 8b 45 e8          	mov    -0x18(%rbp),%rax
    2e38:	48 89 c7             	mov    %rax,%rdi
    2e3b:	e8 00 00 00 00       	call   2e40 <TelaSegundaParteConsultaMedica+0x28>
    2e40:	48 89 c7             	mov    %rax,%rdi
    2e43:	e8 00 00 00 00       	call   2e48 <TelaSegundaParteConsultaMedica+0x30>
    2e48:	48 8d 3d 00 00 00 00 	lea    0x0(%rip),%rdi        # 2e4f <TelaSegundaParteConsultaMedica+0x37>
    2e4f:	e8 00 00 00 00       	call   2e54 <TelaSegundaParteConsultaMedica+0x3c>
    2e54:	48 8d 3d 00 00 00 00 	lea    0x0(%rip),%rdi        # 2e5b <TelaSegundaParteConsultaMedica+0x43>
    2e5b:	b8 00 00 00 00       	mov    $0x0,%eax
    2e60:	e8 00 00 00 00       	call   2e65 <TelaSegundaParteConsultaMedica+0x4d>
    2e65:	b8 00 00 00 00       	mov    $0x0,%eax
    2e6a:	e8 00 00 00 00       	call   2e6f <TelaSegundaParteConsultaMedica+0x57>
    2e6f:	48 89 45 f8          	mov    %rax,-0x8(%rbp)
    2e73:	48 8b 45 e8          	mov    -0x18(%rbp),%rax
    2e77:	48 89 c7             	mov    %rax,%rdi
    2e7a:	e8 00 00 00 00       	call   2e7f <TelaSegundaParteConsultaMedica+0x67>
    2e7f:	48 8d 3d 00 00 00 00 	lea    0x0(%rip),%rdi        # 2e86 <TelaSegundaParteConsultaMedica+0x6e>
    2e86:	e8 00 00 00 00       	call   2e8b <TelaSegundaParteConsultaMedica+0x73>
    2e8b:	48 8b 45 f8          	mov    -0x8(%rbp),%rax
    2e8f:	c9                   	leave  
    2e90:	c3                   	ret    

0000000000002e91 <TelaSubMenuConsultaMedica>:
    2e91:	f3 0f 1e fa          	endbr64 
    2e95:	55                   	push   %rbp
    2e96:	48 89 e5             	mov    %rsp,%rbp
    2e99:	48 83 ec 10          	sub    $0x10,%rsp
    2e9d:	64 48 8b 04 25 28 00 	mov    %fs:0x28,%rax
    2ea4:	00 00 
    2ea6:	48 89 45 f8          	mov    %rax,-0x8(%rbp)
    2eaa:	31 c0                	xor    %eax,%eax
    2eac:	48 8d 3d 00 00 00 00 	lea    0x0(%rip),%rdi        # 2eb3 <TelaSubMenuConsultaMedica+0x22>
    2eb3:	e8 00 00 00 00       	call   2eb8 <TelaSubMenuConsultaMedica+0x27>
    2eb8:	48 8d 3d 00 00 00 00 	lea    0x0(%rip),%rdi        # 2ebf <TelaSubMenuConsultaMedica+0x2e>
    2ebf:	e8 00 00 00 00       	call   2ec4 <TelaSubMenuConsultaMedica+0x33>
    2ec4:	48 8d 3d 00 00 00 00 	lea    0x0(%rip),%rdi        # 2ecb <TelaSubMenuConsultaMedica+0x3a>
    2ecb:	e8 00 00 00 00       	call   2ed0 <TelaSubMenuConsultaMedica+0x3f>
    2ed0:	48 8d 3d 00 00 00 00 	lea    0x0(%rip),%rdi        # 2ed7 <TelaSubMenuConsultaMedica+0x46>
    2ed7:	e8 00 00 00 00       	call   2edc <TelaSubMenuConsultaMedica+0x4b>
    2edc:	48 8d 3d 00 00 00 00 	lea    0x0(%rip),%rdi        # 2ee3 <TelaSubMenuConsultaMedica+0x52>
    2ee3:	e8 00 00 00 00       	call   2ee8 <TelaSubMenuConsultaMedica+0x57>
    2ee8:	48 8d 3d 00 00 00 00 	lea    0x0(%rip),%rdi        # 2eef <TelaSubMenuConsultaMedica+0x5e>
    2eef:	e8 00 00 00 00       	call   2ef4 <TelaSubMenuConsultaMedica+0x63>
    2ef4:	48 8d 3d 00 00 00 00 	lea    0x0(%rip),%rdi        # 2efb <TelaSubMenuConsultaMedica+0x6a>
    2efb:	e8 00 00 00 00       	call   2f00 <TelaSubMenuConsultaMedica+0x6f>
    2f00:	48 8d 3d 00 00 00 00 	lea    0x0(%rip),%rdi        # 2f07 <TelaSubMenuConsultaMedica+0x76>
    2f07:	e8 00 00 00 00       	call   2f0c <TelaSubMenuConsultaMedica+0x7b>
    2f0c:	c7 45 f4 00 00 00 00 	movl   $0x0,-0xc(%rbp)
    2f13:	48 8d 45 f4          	lea    -0xc(%rbp),%rax
    2f17:	48 89 c6             	mov    %rax,%rsi
    2f1a:	48 8d 3d 00 00 00 00 	lea    0x0(%rip),%rdi        # 2f21 <TelaSubMenuConsultaMedica+0x90>
    2f21:	b8 00 00 00 00       	mov    $0x0,%eax
    2f26:	e8 00 00 00 00       	call   2f2b <TelaSubMenuConsultaMedica+0x9a>
    2f2b:	8b 45 f4             	mov    -0xc(%rbp),%eax
    2f2e:	85 c0                	test   %eax,%eax
    2f30:	7e 08                	jle    2f3a <TelaSubMenuConsultaMedica+0xa9>
    2f32:	8b 45 f4             	mov    -0xc(%rbp),%eax
    2f35:	83 f8 05             	cmp    $0x5,%eax
    2f38:	7e 07                	jle    2f41 <TelaSubMenuConsultaMedica+0xb0>
    2f3a:	b8 ff ff ff ff       	mov    $0xffffffff,%eax
    2f3f:	eb 03                	jmp    2f44 <TelaSubMenuConsultaMedica+0xb3>
    2f41:	8b 45 f4             	mov    -0xc(%rbp),%eax
    2f44:	48 8b 55 f8          	mov    -0x8(%rbp),%rdx
    2f48:	64 48 33 14 25 28 00 	xor    %fs:0x28,%rdx
    2f4f:	00 00 
    2f51:	74 05                	je     2f58 <TelaSubMenuConsultaMedica+0xc7>
    2f53:	e8 00 00 00 00       	call   2f58 <TelaSubMenuConsultaMedica+0xc7>
    2f58:	c9                   	leave  
    2f59:	c3                   	ret    

0000000000002f5a <TelaCadastrarLesao>:
    2f5a:	f3 0f 1e fa          	endbr64 
    2f5e:	55                   	push   %rbp
    2f5f:	48 89 e5             	mov    %rsp,%rbp
    2f62:	48 83 ec 10          	sub    $0x10,%rsp
    2f66:	48 8d 3d 00 00 00 00 	lea    0x0(%rip),%rdi        # 2f6d <TelaCadastrarLesao+0x13>
    2f6d:	e8 00 00 00 00       	call   2f72 <TelaCadastrarLesao+0x18>
    2f72:	48 8d 3d 00 00 00 00 	lea    0x0(%rip),%rdi        # 2f79 <TelaCadastrarLesao+0x1f>
    2f79:	e8 00 00 00 00       	call   2f7e <TelaCadastrarLesao+0x24>
    2f7e:	b8 00 00 00 00       	mov    $0x0,%eax
    2f83:	e8 00 00 00 00       	call   2f88 <TelaCadastrarLesao+0x2e>
    2f88:	48 89 45 f8          	mov    %rax,-0x8(%rbp)
    2f8c:	bf 04 00 00 00       	mov    $0x4,%edi
    2f91:	e8 00 00 00 00       	call   2f96 <TelaCadastrarLesao+0x3c>
    2f96:	48 8b 45 f8          	mov    -0x8(%rbp),%rax
    2f9a:	c9                   	leave  
    2f9b:	c3                   	ret    

0000000000002f9c <TelaGerarReceitaMedica>:
    2f9c:	f3 0f 1e fa          	endbr64 
    2fa0:	55                   	push   %rbp
    2fa1:	48 89 e5             	mov    %rsp,%rbp
    2fa4:	48 81 ec 00 02 00 00 	sub    $0x200,%rsp
    2fab:	48 89 bd 18 fe ff ff 	mov    %rdi,-0x1e8(%rbp)
    2fb2:	48 89 b5 10 fe ff ff 	mov    %rsi,-0x1f0(%rbp)
    2fb9:	48 89 95 08 fe ff ff 	mov    %rdx,-0x1f8(%rbp)
    2fc0:	48 89 8d 00 fe ff ff 	mov    %rcx,-0x200(%rbp)
    2fc7:	64 48 8b 04 25 28 00 	mov    %fs:0x28,%rax
    2fce:	00 00 
    2fd0:	48 89 45 f8          	mov    %rax,-0x8(%rbp)
    2fd4:	31 c0                	xor    %eax,%eax
    2fd6:	48 8d 3d 00 00 00 00 	lea    0x0(%rip),%rdi        # 2fdd <TelaGerarReceitaMedica+0x41>
    2fdd:	e8 00 00 00 00       	call   2fe2 <TelaGerarReceitaMedica+0x46>
    2fe2:	48 8d 3d 00 00 00 00 	lea    0x0(%rip),%rdi        # 2fe9 <TelaGerarReceitaMedica+0x4d>
    2fe9:	e8 00 00 00 00       	call   2fee <TelaGerarReceitaMedica+0x52>
    2fee:	48 8d 3d 00 00 00 00 	lea    0x0(%rip),%rdi        # 2ff5 <TelaGerarReceitaMedica+0x59>
    2ff5:	b8 00 00 00 00       	mov    $0x0,%eax
    2ffa:	e8 00 00 00 00       	call   2fff <TelaGerarReceitaMedica+0x63>
    2fff:	48 8d 85 31 fe ff ff 	lea    -0x1cf(%rbp),%rax
    3006:	48 89 c6             	mov    %rax,%rsi
    3009:	48 8d 3d 00 00 00 00 	lea    0x0(%rip),%rdi        # 3010 <TelaGerarReceitaMedica+0x74>
    3010:	b8 00 00 00 00       	mov    $0x0,%eax
    3015:	e8 00 00 00 00       	call   301a <TelaGerarReceitaMedica+0x7e>
    301a:	48 8d 85 31 fe ff ff 	lea    -0x1cf(%rbp),%rax
    3021:	48 8d 35 00 00 00 00 	lea    0x0(%rip),%rsi        # 3028 <TelaGerarReceitaMedica+0x8c>
    3028:	48 89 c7             	mov    %rax,%rdi
    302b:	e8 00 00 00 00       	call   3030 <TelaGerarReceitaMedica+0x94>
    3030:	85 c0                	test   %eax,%eax
    3032:	75 0c                	jne    3040 <TelaGerarReceitaMedica+0xa4>
    3034:	c7 85 24 fe ff ff 00 	movl   $0x0,-0x1dc(%rbp)
    303b:	00 00 00 
    303e:	eb 24                	jmp    3064 <TelaGerarReceitaMedica+0xc8>
    3040:	48 8d 85 31 fe ff ff 	lea    -0x1cf(%rbp),%rax
    3047:	48 8d 35 00 00 00 00 	lea    0x0(%rip),%rsi        # 304e <TelaGerarReceitaMedica+0xb2>
    304e:	48 89 c7             	mov    %rax,%rdi
    3051:	e8 00 00 00 00       	call   3056 <TelaGerarReceitaMedica+0xba>
    3056:	85 c0                	test   %eax,%eax
    3058:	75 0a                	jne    3064 <TelaGerarReceitaMedica+0xc8>
    305a:	c7 85 24 fe ff ff 01 	movl   $0x1,-0x1dc(%rbp)
    3061:	00 00 00 
    3064:	48 8d 3d 00 00 00 00 	lea    0x0(%rip),%rdi        # 306b <TelaGerarReceitaMedica+0xcf>
    306b:	b8 00 00 00 00       	mov    $0x0,%eax
    3070:	e8 00 00 00 00       	call   3075 <TelaGerarReceitaMedica+0xd9>
    3075:	48 8d 85 40 fe ff ff 	lea    -0x1c0(%rbp),%rax
    307c:	48 89 c6             	mov    %rax,%rsi
    307f:	48 8d 3d 00 00 00 00 	lea    0x0(%rip),%rdi        # 3086 <TelaGerarReceitaMedica+0xea>
    3086:	b8 00 00 00 00       	mov    $0x0,%eax
    308b:	e8 00 00 00 00       	call   3090 <TelaGerarReceitaMedica+0xf4>
    3090:	48 8d 3d 00 00 00 00 	lea    0x0(%rip),%rdi        # 3097 <TelaGerarReceitaMedica+0xfb>
    3097:	b8 00 00 00 00       	mov    $0x0,%eax
    309c:	e8 00 00 00 00       	call   30a1 <TelaGerarReceitaMedica+0x105>
    30a1:	48 8d 85 80 fe ff ff 	lea    -0x180(%rbp),%rax
    30a8:	48 89 c6             	mov    %rax,%rsi
    30ab:	48 8d 3d 00 00 00 00 	lea    0x0(%rip),%rdi        # 30b2 <TelaGerarReceitaMedica+0x116>
    30b2:	b8 00 00 00 00       	mov    $0x0,%eax
    30b7:	e8 00 00 00 00       	call   30bc <TelaGerarReceitaMedica+0x120>
    30bc:	48 8d 3d 00 00 00 00 	lea    0x0(%rip),%rdi        # 30c3 <TelaGerarReceitaMedica+0x127>
    30c3:	b8 00 00 00 00       	mov    $0x0,%eax
    30c8:	e8 00 00 00 00       	call   30cd <TelaGerarReceitaMedica+0x131>
    30cd:	48 8d 85 20 fe ff ff 	lea    -0x1e0(%rbp),%rax
    30d4:	48 89 c6             	mov    %rax,%rsi
    30d7:	48 8d 3d 00 00 00 00 	lea    0x0(%rip),%rdi        # 30de <TelaGerarReceitaMedica+0x142>
    30de:	b8 00 00 00 00       	mov    $0x0,%eax
    30e3:	e8 00 00 00 00       	call   30e8 <TelaGerarReceitaMedica+0x14c>
    30e8:	48 8d 3d 00 00 00 00 	lea    0x0(%rip),%rdi        # 30ef <TelaGerarReceitaMedica+0x153>
    30ef:	b8 00 00 00 00       	mov    $0x0,%eax
    30f4:	e8 00 00 00 00       	call   30f9 <TelaGerarReceitaMedica+0x15d>
    30f9:	48 8d 85 c0 fe ff ff 	lea    -0x140(%rbp),%rax
    3100:	48 89 c6             	mov    %rax,%rsi
    3103:	48 8d 3d 00 00 00 00 	lea    0x0(%rip),%rdi        # 310a <TelaGerarReceitaMedica+0x16e>
    310a:	b8 00 00 00 00       	mov    $0x0,%eax
    310f:	e8 00 00 00 00       	call   3114 <TelaGerarReceitaMedica+0x178>
    3114:	44 8b 85 20 fe ff ff 	mov    -0x1e0(%rbp),%r8d
    311b:	48 8d bd c0 fe ff ff 	lea    -0x140(%rbp),%rdi
    3122:	48 8d 8d 80 fe ff ff 	lea    -0x180(%rbp),%rcx
    3129:	48 8d 95 40 fe ff ff 	lea    -0x1c0(%rbp),%rdx
    3130:	8b b5 24 fe ff ff    	mov    -0x1dc(%rbp),%esi
    3136:	48 8b 85 18 fe ff ff 	mov    -0x1e8(%rbp),%rax
    313d:	48 83 ec 08          	sub    $0x8,%rsp
    3141:	ff b5 00 fe ff ff    	push   -0x200(%rbp)
    3147:	ff b5 08 fe ff ff    	push   -0x1f8(%rbp)
    314d:	ff b5 10 fe ff ff    	push   -0x1f0(%rbp)
    3153:	45 89 c1             	mov    %r8d,%r9d
    3156:	49 89 f8             	mov    %rdi,%r8
    3159:	48 89 c7             	mov    %rax,%rdi
    315c:	e8 00 00 00 00       	call   3161 <TelaGerarReceitaMedica+0x1c5>
    3161:	48 83 c4 20          	add    $0x20,%rsp
    3165:	48 89 85 28 fe ff ff 	mov    %rax,-0x1d8(%rbp)
    316c:	bf 05 00 00 00       	mov    $0x5,%edi
    3171:	e8 00 00 00 00       	call   3176 <TelaGerarReceitaMedica+0x1da>
    3176:	48 8b 85 28 fe ff ff 	mov    -0x1d8(%rbp),%rax
    317d:	48 8b 55 f8          	mov    -0x8(%rbp),%rdx
    3181:	64 48 33 14 25 28 00 	xor    %fs:0x28,%rdx
    3188:	00 00 
    318a:	74 05                	je     3191 <TelaGerarReceitaMedica+0x1f5>
    318c:	e8 00 00 00 00       	call   3191 <TelaGerarReceitaMedica+0x1f5>
    3191:	c9                   	leave  
    3192:	c3                   	ret    

0000000000003193 <TelaGerarSolicitacaoBiopsia>:
    3193:	f3 0f 1e fa          	endbr64 
    3197:	55                   	push   %rbp
    3198:	48 89 e5             	mov    %rsp,%rbp
    319b:	48 83 ec 10          	sub    $0x10,%rsp
    319f:	89 7d fc             	mov    %edi,-0x4(%rbp)
    31a2:	83 7d fc 00          	cmpl   $0x0,-0x4(%rbp)
    31a6:	7e 26                	jle    31ce <TelaGerarSolicitacaoBiopsia+0x3b>
    31a8:	48 8d 3d 00 00 00 00 	lea    0x0(%rip),%rdi        # 31af <TelaGerarSolicitacaoBiopsia+0x1c>
    31af:	e8 00 00 00 00       	call   31b4 <TelaGerarSolicitacaoBiopsia+0x21>
    31b4:	48 8d 3d 00 00 00 00 	lea    0x0(%rip),%rdi        # 31bb <TelaGerarSolicitacaoBiopsia+0x28>
    31bb:	e8 00 00 00 00       	call   31c0 <TelaGerarSolicitacaoBiopsia+0x2d>
    31c0:	48 8d 3d 00 00 00 00 	lea    0x0(%rip),%rdi        # 31c7 <TelaGerarSolicitacaoBiopsia+0x34>
    31c7:	e8 00 00 00 00       	call   31cc <TelaGerarSolicitacaoBiopsia+0x39>
    31cc:	eb 24                	jmp    31f2 <TelaGerarSolicitacaoBiopsia+0x5f>
    31ce:	48 8d 3d 00 00 00 00 	lea    0x0(%rip),%rdi        # 31d5 <TelaGerarSolicitacaoBiopsia+0x42>
    31d5:	e8 00 00 00 00       	call   31da <TelaGerarSolicitacaoBiopsia+0x47>
    31da:	48 8d 3d 00 00 00 00 	lea    0x0(%rip),%rdi        # 31e1 <TelaGerarSolicitacaoBiopsia+0x4e>
    31e1:	e8 00 00 00 00       	call   31e6 <TelaGerarSolicitacaoBiopsia+0x53>
    31e6:	48 8d 3d 00 00 00 00 	lea    0x0(%rip),%rdi        # 31ed <TelaGerarSolicitacaoBiopsia+0x5a>
    31ed:	e8 00 00 00 00       	call   31f2 <TelaGerarSolicitacaoBiopsia+0x5f>
    31f2:	bf 06 00 00 00       	mov    $0x6,%edi
    31f7:	e8 00 00 00 00       	call   31fc <TelaGerarSolicitacaoBiopsia+0x69>
    31fc:	90                   	nop
    31fd:	c9                   	leave  
    31fe:	c3                   	ret    

00000000000031ff <TelaGerarEncaminhamento>:
    31ff:	f3 0f 1e fa          	endbr64 
    3203:	55                   	push   %rbp
    3204:	48 89 e5             	mov    %rsp,%rbp
    3207:	48 83 ec 30          	sub    $0x30,%rsp
    320b:	48 89 7d e8          	mov    %rdi,-0x18(%rbp)
    320f:	48 89 75 e0          	mov    %rsi,-0x20(%rbp)
    3213:	48 89 55 d8          	mov    %rdx,-0x28(%rbp)
    3217:	48 8d 3d 00 00 00 00 	lea    0x0(%rip),%rdi        # 321e <TelaGerarEncaminhamento+0x1f>
    321e:	e8 00 00 00 00       	call   3223 <TelaGerarEncaminhamento+0x24>
    3223:	48 8d 3d 00 00 00 00 	lea    0x0(%rip),%rdi        # 322a <TelaGerarEncaminhamento+0x2b>
    322a:	e8 00 00 00 00       	call   322f <TelaGerarEncaminhamento+0x30>
    322f:	48 8b 55 d8          	mov    -0x28(%rbp),%rdx
    3233:	48 8b 4d e0          	mov    -0x20(%rbp),%rcx
    3237:	48 8b 45 e8          	mov    -0x18(%rbp),%rax
    323b:	48 89 ce             	mov    %rcx,%rsi
    323e:	48 89 c7             	mov    %rax,%rdi
    3241:	e8 00 00 00 00       	call   3246 <TelaGerarEncaminhamento+0x47>
    3246:	48 89 45 f8          	mov    %rax,-0x8(%rbp)
    324a:	bf 07 00 00 00       	mov    $0x7,%edi
    324f:	e8 00 00 00 00       	call   3254 <TelaGerarEncaminhamento+0x55>
    3254:	48 8b 45 f8          	mov    -0x8(%rbp),%rax
    3258:	c9                   	leave  
    3259:	c3                   	ret    

000000000000325a <TelaFilaImpressao>:
    325a:	f3 0f 1e fa          	endbr64 
    325e:	55                   	push   %rbp
    325f:	48 89 e5             	mov    %rsp,%rbp
    3262:	48 83 ec 10          	sub    $0x10,%rsp
    3266:	64 48 8b 04 25 28 00 	mov    %fs:0x28,%rax
    326d:	00 00 
    326f:	48 89 45 f8          	mov    %rax,-0x8(%rbp)
    3273:	31 c0                	xor    %eax,%eax
    3275:	48 8d 3d 00 00 00 00 	lea    0x0(%rip),%rdi        # 327c <TelaFilaImpressao+0x22>
    327c:	e8 00 00 00 00       	call   3281 <TelaFilaImpressao+0x27>
    3281:	48 8d 3d 00 00 00 00 	lea    0x0(%rip),%rdi        # 3288 <TelaFilaImpressao+0x2e>
    3288:	e8 00 00 00 00       	call   328d <TelaFilaImpressao+0x33>
    328d:	48 8d 3d 00 00 00 00 	lea    0x0(%rip),%rdi        # 3294 <TelaFilaImpressao+0x3a>
    3294:	e8 00 00 00 00       	call   3299 <TelaFilaImpressao+0x3f>
    3299:	48 8d 3d 00 00 00 00 	lea    0x0(%rip),%rdi        # 32a0 <TelaFilaImpressao+0x46>
    32a0:	e8 00 00 00 00       	call   32a5 <TelaFilaImpressao+0x4b>
    32a5:	48 8d 3d 00 00 00 00 	lea    0x0(%rip),%rdi        # 32ac <TelaFilaImpressao+0x52>
    32ac:	e8 00 00 00 00       	call   32b1 <TelaFilaImpressao+0x57>
    32b1:	c7 45 f4 00 00 00 00 	movl   $0x0,-0xc(%rbp)
    32b8:	48 8d 45 f4          	lea    -0xc(%rbp),%rax
    32bc:	48 89 c6             	mov    %rax,%rsi
    32bf:	48 8d 3d 00 00 00 00 	lea    0x0(%rip),%rdi        # 32c6 <TelaFilaImpressao+0x6c>
    32c6:	b8 00 00 00 00       	mov    $0x0,%eax
    32cb:	e8 00 00 00 00       	call   32d0 <TelaFilaImpressao+0x76>
    32d0:	8b 45 f4             	mov    -0xc(%rbp),%eax
    32d3:	85 c0                	test   %eax,%eax
    32d5:	7e 08                	jle    32df <TelaFilaImpressao+0x85>
    32d7:	8b 45 f4             	mov    -0xc(%rbp),%eax
    32da:	83 f8 02             	cmp    $0x2,%eax
    32dd:	7e 07                	jle    32e6 <TelaFilaImpressao+0x8c>
    32df:	b8 ff ff ff ff       	mov    $0xffffffff,%eax
    32e4:	eb 03                	jmp    32e9 <TelaFilaImpressao+0x8f>
    32e6:	8b 45 f4             	mov    -0xc(%rbp),%eax
    32e9:	48 8b 55 f8          	mov    -0x8(%rbp),%rdx
    32ed:	64 48 33 14 25 28 00 	xor    %fs:0x28,%rdx
    32f4:	00 00 
    32f6:	74 05                	je     32fd <TelaFilaImpressao+0xa3>
    32f8:	e8 00 00 00 00       	call   32fd <TelaFilaImpressao+0xa3>
    32fd:	c9                   	leave  
    32fe:	c3                   	ret    

00000000000032ff <TelaFilaImpressaoFinal>:
    32ff:	f3 0f 1e fa          	endbr64 
    3303:	55                   	push   %rbp
    3304:	48 89 e5             	mov    %rsp,%rbp
    3307:	48 83 ec 10          	sub    $0x10,%rsp
    330b:	48 89 7d f8          	mov    %rdi,-0x8(%rbp)
    330f:	48 89 75 f0          	mov    %rsi,-0x10(%rbp)
    3313:	48 8d 3d 00 00 00 00 	lea    0x0(%rip),%rdi        # 331a <TelaFilaImpressaoFinal+0x1b>
    331a:	e8 00 00 00 00       	call   331f <TelaFilaImpressaoFinal+0x20>
    331f:	48 8d 3d 00 00 00 00 	lea    0x0(%rip),%rdi        # 3326 <TelaFilaImpressaoFinal+0x27>
    3326:	e8 00 00 00 00       	call   332b <TelaFilaImpressaoFinal+0x2c>
    332b:	48 8b 55 f0          	mov    -0x10(%rbp),%rdx
    332f:	48 8b 45 f8          	mov    -0x8(%rbp),%rax
    3333:	48 89 d6             	mov    %rdx,%rsi
    3336:	48 89 c7             	mov    %rax,%rdi
    3339:	e8 00 00 00 00       	call   333e <TelaFilaImpressaoFinal+0x3f>
    333e:	bf 08 00 00 00       	mov    $0x8,%edi
    3343:	e8 00 00 00 00       	call   3348 <TelaFilaImpressaoFinal+0x49>
    3348:	90                   	nop
    3349:	c9                   	leave  
    334a:	c3                   	ret    

000000000000334b <TelaBuscarPacientes>:
    334b:	f3 0f 1e fa          	endbr64 
    334f:	55                   	push   %rbp
    3350:	48 89 e5             	mov    %rsp,%rbp
    3353:	48 83 ec 10          	sub    $0x10,%rsp
    3357:	48 89 7d f8          	mov    %rdi,-0x8(%rbp)
    335b:	48 8d 3d 00 00 00 00 	lea    0x0(%rip),%rdi        # 3362 <TelaBuscarPacientes+0x17>
    3362:	e8 00 00 00 00       	call   3367 <TelaBuscarPacientes+0x1c>
    3367:	48 8d 3d 00 00 00 00 	lea    0x0(%rip),%rdi        # 336e <TelaBuscarPacientes+0x23>
    336e:	b8 00 00 00 00       	mov    $0x0,%eax
    3373:	e8 00 00 00 00       	call   3378 <TelaBuscarPacientes+0x2d>
    3378:	48 8b 45 f8          	mov    -0x8(%rbp),%rax
    337c:	48 89 c6             	mov    %rax,%rsi
    337f:	48 8d 3d 00 00 00 00 	lea    0x0(%rip),%rdi        # 3386 <TelaBuscarPacientes+0x3b>
    3386:	b8 00 00 00 00       	mov    $0x0,%eax
    338b:	e8 00 00 00 00       	call   3390 <TelaBuscarPacientes+0x45>
    3390:	90                   	nop
    3391:	c9                   	leave  
    3392:	c3                   	ret    

0000000000003393 <TelaBuscarPacientesSubMenus>:
    3393:	f3 0f 1e fa          	endbr64 
    3397:	55                   	push   %rbp
    3398:	48 89 e5             	mov    %rsp,%rbp
    339b:	48 83 ec 10          	sub    $0x10,%rsp
    339f:	64 48 8b 04 25 28 00 	mov    %fs:0x28,%rax
    33a6:	00 00 
    33a8:	48 89 45 f8          	mov    %rax,-0x8(%rbp)
    33ac:	31 c0                	xor    %eax,%eax
    33ae:	48 8d 3d 00 00 00 00 	lea    0x0(%rip),%rdi        # 33b5 <TelaBuscarPacientesSubMenus+0x22>
    33b5:	e8 00 00 00 00       	call   33ba <TelaBuscarPacientesSubMenus+0x27>
    33ba:	48 8d 3d 00 00 00 00 	lea    0x0(%rip),%rdi        # 33c1 <TelaBuscarPacientesSubMenus+0x2e>
    33c1:	e8 00 00 00 00       	call   33c6 <TelaBuscarPacientesSubMenus+0x33>
    33c6:	48 8d 3d 00 00 00 00 	lea    0x0(%rip),%rdi        # 33cd <TelaBuscarPacientesSubMenus+0x3a>
    33cd:	e8 00 00 00 00       	call   33d2 <TelaBuscarPacientesSubMenus+0x3f>
    33d2:	48 8d 3d 00 00 00 00 	lea    0x0(%rip),%rdi        # 33d9 <TelaBuscarPacientesSubMenus+0x46>
    33d9:	e8 00 00 00 00       	call   33de <TelaBuscarPacientesSubMenus+0x4b>
    33de:	48 8d 3d 00 00 00 00 	lea    0x0(%rip),%rdi        # 33e5 <TelaBuscarPacientesSubMenus+0x52>
    33e5:	e8 00 00 00 00       	call   33ea <TelaBuscarPacientesSubMenus+0x57>
    33ea:	c7 45 f4 00 00 00 00 	movl   $0x0,-0xc(%rbp)
    33f1:	48 8d 45 f4          	lea    -0xc(%rbp),%rax
    33f5:	48 89 c6             	mov    %rax,%rsi
    33f8:	48 8d 3d 00 00 00 00 	lea    0x0(%rip),%rdi        # 33ff <TelaBuscarPacientesSubMenus+0x6c>
    33ff:	b8 00 00 00 00       	mov    $0x0,%eax
    3404:	e8 00 00 00 00       	call   3409 <TelaBuscarPacientesSubMenus+0x76>
    3409:	8b 45 f4             	mov    -0xc(%rbp),%eax
    340c:	85 c0                	test   %eax,%eax
    340e:	7e 08                	jle    3418 <TelaBuscarPacientesSubMenus+0x85>
    3410:	8b 45 f4             	mov    -0xc(%rbp),%eax
    3413:	83 f8 02             	cmp    $0x2,%eax
    3416:	7e 07                	jle    341f <TelaBuscarPacientesSubMenus+0x8c>
    3418:	b8 ff ff ff ff       	mov    $0xffffffff,%eax
    341d:	eb 03                	jmp    3422 <TelaBuscarPacientesSubMenus+0x8f>
    341f:	8b 45 f4             	mov    -0xc(%rbp),%eax
    3422:	48 8b 55 f8          	mov    -0x8(%rbp),%rdx
    3426:	64 48 33 14 25 28 00 	xor    %fs:0x28,%rdx
    342d:	00 00 
    342f:	74 05                	je     3436 <TelaBuscarPacientesSubMenus+0xa3>
    3431:	e8 00 00 00 00       	call   3436 <TelaBuscarPacientesSubMenus+0xa3>
    3436:	c9                   	leave  
    3437:	c3                   	ret    

0000000000003438 <TelaRelatorio>:
    3438:	f3 0f 1e fa          	endbr64 
    343c:	55                   	push   %rbp
    343d:	48 89 e5             	mov    %rsp,%rbp
    3440:	48 83 ec 10          	sub    $0x10,%rsp
    3444:	48 89 7d f8          	mov    %rdi,-0x8(%rbp)
    3448:	48 8d 3d 00 00 00 00 	lea    0x0(%rip),%rdi        # 344f <TelaRelatorio+0x17>
    344f:	e8 00 00 00 00       	call   3454 <TelaRelatorio+0x1c>
    3454:	48 8b 45 f8          	mov    -0x8(%rbp),%rax
    3458:	48 89 c7             	mov    %rax,%rdi
    345b:	e8 00 00 00 00       	call   3460 <TelaRelatorio+0x28>
    3460:	90                   	nop
    3461:	c9                   	leave  
    3462:	c3                   	ret    

0000000000003463 <TelaRelatorioSubMenu>:
    3463:	f3 0f 1e fa          	endbr64 
    3467:	55                   	push   %rbp
    3468:	48 89 e5             	mov    %rsp,%rbp
    346b:	48 83 ec 10          	sub    $0x10,%rsp
    346f:	64 48 8b 04 25 28 00 	mov    %fs:0x28,%rax
    3476:	00 00 
    3478:	48 89 45 f8          	mov    %rax,-0x8(%rbp)
    347c:	31 c0                	xor    %eax,%eax
    347e:	48 8d 3d 00 00 00 00 	lea    0x0(%rip),%rdi        # 3485 <TelaRelatorioSubMenu+0x22>
    3485:	e8 00 00 00 00       	call   348a <TelaRelatorioSubMenu+0x27>
    348a:	48 8d 3d 00 00 00 00 	lea    0x0(%rip),%rdi        # 3491 <TelaRelatorioSubMenu+0x2e>
    3491:	e8 00 00 00 00       	call   3496 <TelaRelatorioSubMenu+0x33>
    3496:	48 8d 3d 00 00 00 00 	lea    0x0(%rip),%rdi        # 349d <TelaRelatorioSubMenu+0x3a>
    349d:	e8 00 00 00 00       	call   34a2 <TelaRelatorioSubMenu+0x3f>
    34a2:	48 8d 3d 00 00 00 00 	lea    0x0(%rip),%rdi        # 34a9 <TelaRelatorioSubMenu+0x46>
    34a9:	e8 00 00 00 00       	call   34ae <TelaRelatorioSubMenu+0x4b>
    34ae:	c7 45 f4 00 00 00 00 	movl   $0x0,-0xc(%rbp)
    34b5:	48 8d 45 f4          	lea    -0xc(%rbp),%rax
    34b9:	48 89 c6             	mov    %rax,%rsi
    34bc:	48 8d 3d 00 00 00 00 	lea    0x0(%rip),%rdi        # 34c3 <TelaRelatorioSubMenu+0x60>
    34c3:	b8 00 00 00 00       	mov    $0x0,%eax
    34c8:	e8 00 00 00 00       	call   34cd <TelaRelatorioSubMenu+0x6a>
    34cd:	8b 45 f4             	mov    -0xc(%rbp),%eax
    34d0:	85 c0                	test   %eax,%eax
    34d2:	7e 08                	jle    34dc <TelaRelatorioSubMenu+0x79>
    34d4:	8b 45 f4             	mov    -0xc(%rbp),%eax
    34d7:	83 f8 02             	cmp    $0x2,%eax
    34da:	7e 07                	jle    34e3 <TelaRelatorioSubMenu+0x80>
    34dc:	b8 ff ff ff ff       	mov    $0xffffffff,%eax
    34e1:	eb 03                	jmp    34e6 <TelaRelatorioSubMenu+0x83>
    34e3:	8b 45 f4             	mov    -0xc(%rbp),%eax
    34e6:	48 8b 55 f8          	mov    -0x8(%rbp),%rdx
    34ea:	64 48 33 14 25 28 00 	xor    %fs:0x28,%rdx
    34f1:	00 00 
    34f3:	74 05                	je     34fa <TelaRelatorioSubMenu+0x97>
    34f5:	e8 00 00 00 00       	call   34fa <TelaRelatorioSubMenu+0x97>
    34fa:	c9                   	leave  
    34fb:	c3                   	ret    

00000000000034fc <TelaFinalizaComTecla>:
    34fc:	f3 0f 1e fa          	endbr64 
    3500:	55                   	push   %rbp
    3501:	48 89 e5             	mov    %rsp,%rbp
    3504:	48 83 ec 20          	sub    $0x20,%rsp
    3508:	89 7d ec             	mov    %edi,-0x14(%rbp)
    350b:	64 48 8b 04 25 28 00 	mov    %fs:0x28,%rax
    3512:	00 00 
    3514:	48 89 45 f8          	mov    %rax,-0x8(%rbp)
    3518:	31 c0                	xor    %eax,%eax
    351a:	83 7d ec 00          	cmpl   $0x0,-0x14(%rbp)
    351e:	74 0c                	je     352c <TelaFinalizaComTecla+0x30>
    3520:	83 7d ec 01          	cmpl   $0x1,-0x14(%rbp)
    3524:	74 06                	je     352c <TelaFinalizaComTecla+0x30>
    3526:	83 7d ec 02          	cmpl   $0x2,-0x14(%rbp)
    352a:	75 11                	jne    353d <TelaFinalizaComTecla+0x41>
    352c:	48 8d 3d 00 00 00 00 	lea    0x0(%rip),%rdi        # 3533 <TelaFinalizaComTecla+0x37>
    3533:	e8 00 00 00 00       	call   3538 <TelaFinalizaComTecla+0x3c>
    3538:	e9 07 01 00 00       	jmp    3644 <TelaFinalizaComTecla+0x148>
    353d:	83 7d ec 03          	cmpl   $0x3,-0x14(%rbp)
    3541:	75 1d                	jne    3560 <TelaFinalizaComTecla+0x64>
    3543:	48 8d 3d 00 00 00 00 	lea    0x0(%rip),%rdi        # 354a <TelaFinalizaComTecla+0x4e>
    354a:	e8 00 00 00 00       	call   354f <TelaFinalizaComTecla+0x53>
    354f:	48 8d 3d 00 00 00 00 	lea    0x0(%rip),%rdi        # 3556 <TelaFinalizaComTecla+0x5a>
    3556:	e8 00 00 00 00       	call   355b <TelaFinalizaComTecla+0x5f>
    355b:	e9 e4 00 00 00       	jmp    3644 <TelaFinalizaComTecla+0x148>
    3560:	83 7d ec 04          	cmpl   $0x4,-0x14(%rbp)
    3564:	75 1d                	jne    3583 <TelaFinalizaComTecla+0x87>
    3566:	48 8d 3d 00 00 00 00 	lea    0x0(%rip),%rdi        # 356d <TelaFinalizaComTecla+0x71>
    356d:	e8 00 00 00 00       	call   3572 <TelaFinalizaComTecla+0x76>
    3572:	48 8d 3d 00 00 00 00 	lea    0x0(%rip),%rdi        # 3579 <TelaFinalizaComTecla+0x7d>
    3579:	e8 00 00 00 00       	call   357e <TelaFinalizaComTecla+0x82>
    357e:	e9 c1 00 00 00       	jmp    3644 <TelaFinalizaComTecla+0x148>
    3583:	83 7d ec 05          	cmpl   $0x5,-0x14(%rbp)
    3587:	75 1d                	jne    35a6 <TelaFinalizaComTecla+0xaa>
    3589:	48 8d 3d 00 00 00 00 	lea    0x0(%rip),%rdi        # 3590 <TelaFinalizaComTecla+0x94>
    3590:	e8 00 00 00 00       	call   3595 <TelaFinalizaComTecla+0x99>
    3595:	48 8d 3d 00 00 00 00 	lea    0x0(%rip),%rdi        # 359c <TelaFinalizaComTecla+0xa0>
    359c:	e8 00 00 00 00       	call   35a1 <TelaFinalizaComTecla+0xa5>
    35a1:	e9 9e 00 00 00       	jmp    3644 <TelaFinalizaComTecla+0x148>
    35a6:	83 7d ec 07          	cmpl   $0x7,-0x14(%rbp)
    35aa:	75 1a                	jne    35c6 <TelaFinalizaComTecla+0xca>
    35ac:	48 8d 3d 00 00 00 00 	lea    0x0(%rip),%rdi        # 35b3 <TelaFinalizaComTecla+0xb7>
    35b3:	e8 00 00 00 00       	call   35b8 <TelaFinalizaComTecla+0xbc>
    35b8:	48 8d 3d 00 00 00 00 	lea    0x0(%rip),%rdi        # 35bf <TelaFinalizaComTecla+0xc3>
    35bf:	e8 00 00 00 00       	call   35c4 <TelaFinalizaComTecla+0xc8>
    35c4:	eb 7e                	jmp    3644 <TelaFinalizaComTecla+0x148>
    35c6:	83 7d ec 08          	cmpl   $0x8,-0x14(%rbp)
    35ca:	75 1a                	jne    35e6 <TelaFinalizaComTecla+0xea>
    35cc:	48 8d 3d 00 00 00 00 	lea    0x0(%rip),%rdi        # 35d3 <TelaFinalizaComTecla+0xd7>
    35d3:	e8 00 00 00 00       	call   35d8 <TelaFinalizaComTecla+0xdc>
    35d8:	48 8d 3d 00 00 00 00 	lea    0x0(%rip),%rdi        # 35df <TelaFinalizaComTecla+0xe3>
    35df:	e8 00 00 00 00       	call   35e4 <TelaFinalizaComTecla+0xe8>
    35e4:	eb 5e                	jmp    3644 <TelaFinalizaComTecla+0x148>
    35e6:	83 7d ec 09          	cmpl   $0x9,-0x14(%rbp)
    35ea:	75 1a                	jne    3606 <TelaFinalizaComTecla+0x10a>
    35ec:	48 8d 3d 00 00 00 00 	lea    0x0(%rip),%rdi        # 35f3 <TelaFinalizaComTecla+0xf7>
    35f3:	e8 00 00 00 00       	call   35f8 <TelaFinalizaComTecla+0xfc>
    35f8:	48 8d 3d 00 00 00 00 	lea    0x0(%rip),%rdi        # 35ff <TelaFinalizaComTecla+0x103>
    35ff:	e8 00 00 00 00       	call   3604 <TelaFinalizaComTecla+0x108>
    3604:	eb 3e                	jmp    3644 <TelaFinalizaComTecla+0x148>
    3606:	83 7d ec 0a          	cmpl   $0xa,-0x14(%rbp)
    360a:	75 1a                	jne    3626 <TelaFinalizaComTecla+0x12a>
    360c:	48 8d 3d 00 00 00 00 	lea    0x0(%rip),%rdi        # 3613 <TelaFinalizaComTecla+0x117>
    3613:	e8 00 00 00 00       	call   3618 <TelaFinalizaComTecla+0x11c>
    3618:	48 8d 3d 00 00 00 00 	lea    0x0(%rip),%rdi        # 361f <TelaFinalizaComTecla+0x123>
    361f:	e8 00 00 00 00       	call   3624 <TelaFinalizaComTecla+0x128>
    3624:	eb 1e                	jmp    3644 <TelaFinalizaComTecla+0x148>
    3626:	83 7d ec 0b          	cmpl   $0xb,-0x14(%rbp)
    362a:	75 18                	jne    3644 <TelaFinalizaComTecla+0x148>
    362c:	48 8d 3d 00 00 00 00 	lea    0x0(%rip),%rdi        # 3633 <TelaFinalizaComTecla+0x137>
    3633:	e8 00 00 00 00       	call   3638 <TelaFinalizaComTecla+0x13c>
    3638:	48 8d 3d 00 00 00 00 	lea    0x0(%rip),%rdi        # 363f <TelaFinalizaComTecla+0x143>
    363f:	e8 00 00 00 00       	call   3644 <TelaFinalizaComTecla+0x148>
    3644:	48 8d 45 f7          	lea    -0x9(%rbp),%rax
    3648:	48 89 c6             	mov    %rax,%rsi
    364b:	48 8d 3d 00 00 00 00 	lea    0x0(%rip),%rdi        # 3652 <TelaFinalizaComTecla+0x156>
    3652:	b8 00 00 00 00       	mov    $0x0,%eax
    3657:	e8 00 00 00 00       	call   365c <TelaFinalizaComTecla+0x160>
    365c:	90                   	nop
    365d:	48 8b 45 f8          	mov    -0x8(%rbp),%rax
    3661:	64 48 33 04 25 28 00 	xor    %fs:0x28,%rax
    3668:	00 00 
    366a:	74 05                	je     3671 <TelaFinalizaComTecla+0x175>
    366c:	e8 00 00 00 00       	call   3671 <TelaFinalizaComTecla+0x175>
    3671:	c9                   	leave  
    3672:	c3                   	ret    

0000000000003673 <TelaLogin>:
    3673:	f3 0f 1e fa          	endbr64 
    3677:	55                   	push   %rbp
    3678:	48 89 e5             	mov    %rsp,%rbp
    367b:	48 83 ec 10          	sub    $0x10,%rsp
    367f:	48 89 7d f8          	mov    %rdi,-0x8(%rbp)
    3683:	48 89 75 f0          	mov    %rsi,-0x10(%rbp)
    3687:	48 8d 3d 00 00 00 00 	lea    0x0(%rip),%rdi        # 368e <TelaLogin+0x1b>
    368e:	e8 00 00 00 00       	call   3693 <TelaLogin+0x20>
    3693:	48 8d 3d 00 00 00 00 	lea    0x0(%rip),%rdi        # 369a <TelaLogin+0x27>
    369a:	b8 00 00 00 00       	mov    $0x0,%eax
    369f:	e8 00 00 00 00       	call   36a4 <TelaLogin+0x31>
    36a4:	48 8b 45 f8          	mov    -0x8(%rbp),%rax
    36a8:	48 89 c6             	mov    %rax,%rsi
    36ab:	48 8d 3d 00 00 00 00 	lea    0x0(%rip),%rdi        # 36b2 <TelaLogin+0x3f>
    36b2:	b8 00 00 00 00       	mov    $0x0,%eax
    36b7:	e8 00 00 00 00       	call   36bc <TelaLogin+0x49>
    36bc:	48 8d 3d 00 00 00 00 	lea    0x0(%rip),%rdi        # 36c3 <TelaLogin+0x50>
    36c3:	b8 00 00 00 00       	mov    $0x0,%eax
    36c8:	e8 00 00 00 00       	call   36cd <TelaLogin+0x5a>
    36cd:	48 8b 45 f0          	mov    -0x10(%rbp),%rax
    36d1:	48 89 c6             	mov    %rax,%rsi
    36d4:	48 8d 3d 00 00 00 00 	lea    0x0(%rip),%rdi        # 36db <TelaLogin+0x68>
    36db:	b8 00 00 00 00       	mov    $0x0,%eax
    36e0:	e8 00 00 00 00       	call   36e5 <TelaLogin+0x72>
    36e5:	48 8d 3d 00 00 00 00 	lea    0x0(%rip),%rdi        # 36ec <TelaLogin+0x79>
    36ec:	e8 00 00 00 00       	call   36f1 <TelaLogin+0x7e>
    36f1:	90                   	nop
    36f2:	c9                   	leave  
    36f3:	c3                   	ret    

00000000000036f4 <TelaMenuPrincipal>:
    36f4:	f3 0f 1e fa          	endbr64 
    36f8:	55                   	push   %rbp
    36f9:	48 89 e5             	mov    %rsp,%rbp
    36fc:	48 83 ec 20          	sub    $0x20,%rsp
    3700:	89 7d ec             	mov    %edi,-0x14(%rbp)
    3703:	89 75 e8             	mov    %esi,-0x18(%rbp)
    3706:	64 48 8b 04 25 28 00 	mov    %fs:0x28,%rax
    370d:	00 00 
    370f:	48 89 45 f8          	mov    %rax,-0x8(%rbp)
    3713:	31 c0                	xor    %eax,%eax
    3715:	48 8d 3d 00 00 00 00 	lea    0x0(%rip),%rdi        # 371c <TelaMenuPrincipal+0x28>
    371c:	e8 00 00 00 00       	call   3721 <TelaMenuPrincipal+0x2d>
    3721:	48 8d 3d 00 00 00 00 	lea    0x0(%rip),%rdi        # 3728 <TelaMenuPrincipal+0x34>
    3728:	e8 00 00 00 00       	call   372d <TelaMenuPrincipal+0x39>
    372d:	83 7d ec 00          	cmpl   $0x0,-0x14(%rbp)
    3731:	74 0c                	je     373f <TelaMenuPrincipal+0x4b>
    3733:	48 8d 3d 00 00 00 00 	lea    0x0(%rip),%rdi        # 373a <TelaMenuPrincipal+0x46>
    373a:	e8 00 00 00 00       	call   373f <TelaMenuPrincipal+0x4b>
    373f:	83 7d e8 00          	cmpl   $0x0,-0x18(%rbp)
    3743:	75 0c                	jne    3751 <TelaMenuPrincipal+0x5d>
    3745:	48 8d 3d 00 00 00 00 	lea    0x0(%rip),%rdi        # 374c <TelaMenuPrincipal+0x58>
    374c:	e8 00 00 00 00       	call   3751 <TelaMenuPrincipal+0x5d>
    3751:	83 7d e8 00          	cmpl   $0x0,-0x18(%rbp)
    3755:	75 0c                	jne    3763 <TelaMenuPrincipal+0x6f>
    3757:	48 8d 3d 00 00 00 00 	lea    0x0(%rip),%rdi        # 375e <TelaMenuPrincipal+0x6a>
    375e:	e8 00 00 00 00       	call   3763 <TelaMenuPrincipal+0x6f>
    3763:	83 7d ec 00          	cmpl   $0x0,-0x14(%rbp)
    3767:	75 06                	jne    376f <TelaMenuPrincipal+0x7b>
    3769:	83 7d e8 00          	cmpl   $0x0,-0x18(%rbp)
    376d:	74 0c                	je     377b <TelaMenuPrincipal+0x87>
    376f:	48 8d 3d 00 00 00 00 	lea    0x0(%rip),%rdi        # 3776 <TelaMenuPrincipal+0x82>
    3776:	e8 00 00 00 00       	call   377b <TelaMenuPrincipal+0x87>
    377b:	48 8d 3d 00 00 00 00 	lea    0x0(%rip),%rdi        # 3782 <TelaMenuPrincipal+0x8e>
    3782:	e8 00 00 00 00       	call   3787 <TelaMenuPrincipal+0x93>
    3787:	48 8d 3d 00 00 00 00 	lea    0x0(%rip),%rdi        # 378e <TelaMenuPrincipal+0x9a>
    378e:	e8 00 00 00 00       	call   3793 <TelaMenuPrincipal+0x9f>
    3793:	48 8d 3d 00 00 00 00 	lea    0x0(%rip),%rdi        # 379a <TelaMenuPrincipal+0xa6>
    379a:	e8 00 00 00 00       	call   379f <TelaMenuPrincipal+0xab>
    379f:	48 8d 3d 00 00 00 00 	lea    0x0(%rip),%rdi        # 37a6 <TelaMenuPrincipal+0xb2>
    37a6:	e8 00 00 00 00       	call   37ab <TelaMenuPrincipal+0xb7>
    37ab:	48 8d 3d 00 00 00 00 	lea    0x0(%rip),%rdi        # 37b2 <TelaMenuPrincipal+0xbe>
    37b2:	e8 00 00 00 00       	call   37b7 <TelaMenuPrincipal+0xc3>
    37b7:	c7 45 f4 00 00 00 00 	movl   $0x0,-0xc(%rbp)
    37be:	48 8d 45 f4          	lea    -0xc(%rbp),%rax
    37c2:	48 89 c6             	mov    %rax,%rsi
    37c5:	48 8d 3d 00 00 00 00 	lea    0x0(%rip),%rdi        # 37cc <TelaMenuPrincipal+0xd8>
    37cc:	b8 00 00 00 00       	mov    $0x0,%eax
    37d1:	e8 00 00 00 00       	call   37d6 <TelaMenuPrincipal+0xe2>
    37d6:	83 7d ec 00          	cmpl   $0x0,-0x14(%rbp)
    37da:	75 1d                	jne    37f9 <TelaMenuPrincipal+0x105>
    37dc:	83 7d e8 00          	cmpl   $0x0,-0x18(%rbp)
    37e0:	75 17                	jne    37f9 <TelaMenuPrincipal+0x105>
    37e2:	8b 45 f4             	mov    -0xc(%rbp),%eax
    37e5:	83 f8 01             	cmp    $0x1,%eax
    37e8:	74 08                	je     37f2 <TelaMenuPrincipal+0xfe>
    37ea:	8b 45 f4             	mov    -0xc(%rbp),%eax
    37ed:	83 f8 04             	cmp    $0x4,%eax
    37f0:	75 07                	jne    37f9 <TelaMenuPrincipal+0x105>
    37f2:	b8 ff ff ff ff       	mov    $0xffffffff,%eax
    37f7:	eb 4e                	jmp    3847 <TelaMenuPrincipal+0x153>
    37f9:	83 7d e8 00          	cmpl   $0x0,-0x18(%rbp)
    37fd:	74 2f                	je     382e <TelaMenuPrincipal+0x13a>
    37ff:	8b 45 f4             	mov    -0xc(%rbp),%eax
    3802:	83 f8 04             	cmp    $0x4,%eax
    3805:	74 27                	je     382e <TelaMenuPrincipal+0x13a>
    3807:	8b 45 f4             	mov    -0xc(%rbp),%eax
    380a:	83 f8 05             	cmp    $0x5,%eax
    380d:	74 1f                	je     382e <TelaMenuPrincipal+0x13a>
    380f:	8b 45 f4             	mov    -0xc(%rbp),%eax
    3812:	83 f8 06             	cmp    $0x6,%eax
    3815:	74 17                	je     382e <TelaMenuPrincipal+0x13a>
    3817:	8b 45 f4             	mov    -0xc(%rbp),%eax
    381a:	83 f8 07             	cmp    $0x7,%eax
    381d:	74 0f                	je     382e <TelaMenuPrincipal+0x13a>
    381f:	8b 45 f4             	mov    -0xc(%rbp),%eax
    3822:	83 f8 08             	cmp    $0x8,%eax
    3825:	74 07                	je     382e <TelaMenuPrincipal+0x13a>
    3827:	b8 ff ff ff ff       	mov    $0xffffffff,%eax
    382c:	eb 19                	jmp    3847 <TelaMenuPrincipal+0x153>
    382e:	8b 45 f4             	mov    -0xc(%rbp),%eax
    3831:	85 c0                	test   %eax,%eax
    3833:	7e 08                	jle    383d <TelaMenuPrincipal+0x149>
    3835:	8b 45 f4             	mov    -0xc(%rbp),%eax
    3838:	83 f8 08             	cmp    $0x8,%eax
    383b:	7e 07                	jle    3844 <TelaMenuPrincipal+0x150>
    383d:	b8 ff ff ff ff       	mov    $0xffffffff,%eax
    3842:	eb 03                	jmp    3847 <TelaMenuPrincipal+0x153>
    3844:	8b 45 f4             	mov    -0xc(%rbp),%eax
    3847:	48 8b 55 f8          	mov    -0x8(%rbp),%rdx
    384b:	64 48 33 14 25 28 00 	xor    %fs:0x28,%rdx
    3852:	00 00 
    3854:	74 05                	je     385b <TelaMenuPrincipal+0x167>
    3856:	e8 00 00 00 00       	call   385b <TelaMenuPrincipal+0x167>
    385b:	c9                   	leave  
    385c:	c3                   	ret    

000000000000385d <criaEncaminhamento>:
    385d:	f3 0f 1e fa          	endbr64 
    3861:	55                   	push   %rbp
    3862:	48 89 e5             	mov    %rsp,%rbp
    3865:	48 83 ec 30          	sub    $0x30,%rsp
    3869:	48 89 7d e8          	mov    %rdi,-0x18(%rbp)
    386d:	48 89 75 e0          	mov    %rsi,-0x20(%rbp)
    3871:	48 89 55 d8          	mov    %rdx,-0x28(%rbp)
    3875:	be b0 00 00 00       	mov    $0xb0,%esi
    387a:	bf 01 00 00 00       	mov    $0x1,%edi
    387f:	e8 00 00 00 00       	call   3884 <criaEncaminhamento+0x27>
    3884:	48 89 45 f8          	mov    %rax,-0x8(%rbp)
    3888:	48 8b 45 f8          	mov    -0x8(%rbp),%rax
    388c:	48 8b 55 e8          	mov    -0x18(%rbp),%rdx
    3890:	48 89 10             	mov    %rdx,(%rax)
    3893:	48 8b 45 f8          	mov    -0x8(%rbp),%rax
    3897:	48 8b 55 e0          	mov    -0x20(%rbp),%rdx
    389b:	48 89 50 08          	mov    %rdx,0x8(%rax)
    389f:	48 8b 45 f8          	mov    -0x8(%rbp),%rax
    38a3:	48 8b 55 d8          	mov    -0x28(%rbp),%rdx
    38a7:	48 89 50 10          	mov    %rdx,0x10(%rax)
    38ab:	48 8d 3d 00 00 00 00 	lea    0x0(%rip),%rdi        # 38b2 <criaEncaminhamento+0x55>
    38b2:	b8 00 00 00 00       	mov    $0x0,%eax
    38b7:	e8 00 00 00 00       	call   38bc <criaEncaminhamento+0x5f>
    38bc:	48 8b 45 f8          	mov    -0x8(%rbp),%rax
    38c0:	48 83 c0 18          	add    $0x18,%rax
    38c4:	48 89 c6             	mov    %rax,%rsi
    38c7:	48 8d 3d 00 00 00 00 	lea    0x0(%rip),%rdi        # 38ce <criaEncaminhamento+0x71>
    38ce:	b8 00 00 00 00       	mov    $0x0,%eax
    38d3:	e8 00 00 00 00       	call   38d8 <criaEncaminhamento+0x7b>
    38d8:	48 8d 3d 00 00 00 00 	lea    0x0(%rip),%rdi        # 38df <criaEncaminhamento+0x82>
    38df:	b8 00 00 00 00       	mov    $0x0,%eax
    38e4:	e8 00 00 00 00       	call   38e9 <criaEncaminhamento+0x8c>
    38e9:	48 8b 45 f8          	mov    -0x8(%rbp),%rax
    38ed:	48 83 c0 4a          	add    $0x4a,%rax
    38f1:	48 89 c6             	mov    %rax,%rsi
    38f4:	48 8d 3d 00 00 00 00 	lea    0x0(%rip),%rdi        # 38fb <criaEncaminhamento+0x9e>
    38fb:	b8 00 00 00 00       	mov    $0x0,%eax
    3900:	e8 00 00 00 00       	call   3905 <criaEncaminhamento+0xa8>
    3905:	48 8b 45 f8          	mov    -0x8(%rbp),%rax
    3909:	c9                   	leave  
    390a:	c3                   	ret    

000000000000390b <desalocaEncaminhamento>:
    390b:	f3 0f 1e fa          	endbr64 
    390f:	55                   	push   %rbp
    3910:	48 89 e5             	mov    %rsp,%rbp
    3913:	48 83 ec 10          	sub    $0x10,%rsp
    3917:	48 89 7d f8          	mov    %rdi,-0x8(%rbp)
    391b:	48 83 7d f8 00       	cmpq   $0x0,-0x8(%rbp)
    3920:	74 14                	je     3936 <desalocaEncaminhamento+0x2b>
    3922:	48 8b 45 f8          	mov    -0x8(%rbp),%rax
    3926:	48 89 c7             	mov    %rax,%rdi
    3929:	e8 00 00 00 00       	call   392e <desalocaEncaminhamento+0x23>
    392e:	48 c7 45 f8 00 00 00 	movq   $0x0,-0x8(%rbp)
    3935:	00 
    3936:	90                   	nop
    3937:	c9                   	leave  
    3938:	c3                   	ret    

0000000000003939 <imprimeNaTelaEncaminhamento>:
    3939:	f3 0f 1e fa          	endbr64 
    393d:	55                   	push   %rbp
    393e:	48 89 e5             	mov    %rsp,%rbp
    3941:	53                   	push   %rbx
    3942:	48 83 ec 38          	sub    $0x38,%rsp
    3946:	48 89 7d c8          	mov    %rdi,-0x38(%rbp)
    394a:	64 48 8b 04 25 28 00 	mov    %fs:0x28,%rax
    3951:	00 00 
    3953:	48 89 45 e8          	mov    %rax,-0x18(%rbp)
    3957:	31 c0                	xor    %eax,%eax
    3959:	48 8b 45 c8          	mov    -0x38(%rbp),%rax
    395d:	48 89 45 d0          	mov    %rax,-0x30(%rbp)
    3961:	48 8b 45 d0          	mov    -0x30(%rbp),%rax
    3965:	48 8b 00             	mov    (%rax),%rax
    3968:	48 89 c7             	mov    %rax,%rdi
    396b:	e8 00 00 00 00       	call   3970 <imprimeNaTelaEncaminhamento+0x37>
    3970:	48 89 c6             	mov    %rax,%rsi
    3973:	48 8d 3d 00 00 00 00 	lea    0x0(%rip),%rdi        # 397a <imprimeNaTelaEncaminhamento+0x41>
    397a:	b8 00 00 00 00       	mov    $0x0,%eax
    397f:	e8 00 00 00 00       	call   3984 <imprimeNaTelaEncaminhamento+0x4b>
    3984:	48 8b 45 d0          	mov    -0x30(%rbp),%rax
    3988:	48 8b 00             	mov    (%rax),%rax
    398b:	48 89 c7             	mov    %rax,%rdi
    398e:	e8 00 00 00 00       	call   3993 <imprimeNaTelaEncaminhamento+0x5a>
    3993:	48 89 c6             	mov    %rax,%rsi
    3996:	48 8d 3d 00 00 00 00 	lea    0x0(%rip),%rdi        # 399d <imprimeNaTelaEncaminhamento+0x64>
    399d:	b8 00 00 00 00       	mov    $0x0,%eax
    39a2:	e8 00 00 00 00       	call   39a7 <imprimeNaTelaEncaminhamento+0x6e>
    39a7:	48 8b 45 d0          	mov    -0x30(%rbp),%rax
    39ab:	48 83 c0 18          	add    $0x18,%rax
    39af:	48 89 c6             	mov    %rax,%rsi
    39b2:	48 8d 3d 00 00 00 00 	lea    0x0(%rip),%rdi        # 39b9 <imprimeNaTelaEncaminhamento+0x80>
    39b9:	b8 00 00 00 00       	mov    $0x0,%eax
    39be:	e8 00 00 00 00       	call   39c3 <imprimeNaTelaEncaminhamento+0x8a>
    39c3:	48 8b 45 d0          	mov    -0x30(%rbp),%rax
    39c7:	48 83 c0 4a          	add    $0x4a,%rax
    39cb:	48 89 c6             	mov    %rax,%rsi
    39ce:	48 8d 3d 00 00 00 00 	lea    0x0(%rip),%rdi        # 39d5 <imprimeNaTelaEncaminhamento+0x9c>
    39d5:	b8 00 00 00 00       	mov    $0x0,%eax
    39da:	e8 00 00 00 00       	call   39df <imprimeNaTelaEncaminhamento+0xa6>
    39df:	48 8b 45 d0          	mov    -0x30(%rbp),%rax
    39e3:	48 8b 40 08          	mov    0x8(%rax),%rax
    39e7:	48 89 c7             	mov    %rax,%rdi
    39ea:	e8 00 00 00 00       	call   39ef <imprimeNaTelaEncaminhamento+0xb6>
    39ef:	48 89 c3             	mov    %rax,%rbx
    39f2:	48 8b 45 d0          	mov    -0x30(%rbp),%rax
    39f6:	48 8b 40 08          	mov    0x8(%rax),%rax
    39fa:	48 89 c7             	mov    %rax,%rdi
    39fd:	e8 00 00 00 00       	call   3a02 <imprimeNaTelaEncaminhamento+0xc9>
    3a02:	48 89 da             	mov    %rbx,%rdx
    3a05:	48 89 c6             	mov    %rax,%rsi
    3a08:	48 8d 3d 00 00 00 00 	lea    0x0(%rip),%rdi        # 3a0f <imprimeNaTelaEncaminhamento+0xd6>
    3a0f:	b8 00 00 00 00       	mov    $0x0,%eax
    3a14:	e8 00 00 00 00       	call   3a19 <imprimeNaTelaEncaminhamento+0xe0>
    3a19:	48 8b 45 d0          	mov    -0x30(%rbp),%rax
    3a1d:	48 8b 40 10          	mov    0x10(%rax),%rax
    3a21:	48 8d 55 dc          	lea    -0x24(%rbp),%rdx
    3a25:	48 89 d6             	mov    %rdx,%rsi
    3a28:	48 89 c7             	mov    %rax,%rdi
    3a2b:	e8 00 00 00 00       	call   3a30 <imprimeNaTelaEncaminhamento+0xf7>
    3a30:	48 8d 45 dc          	lea    -0x24(%rbp),%rax
    3a34:	48 89 c6             	mov    %rax,%rsi
    3a37:	48 8d 3d 00 00 00 00 	lea    0x0(%rip),%rdi        # 3a3e <imprimeNaTelaEncaminhamento+0x105>
    3a3e:	b8 00 00 00 00       	mov    $0x0,%eax
    3a43:	e8 00 00 00 00       	call   3a48 <imprimeNaTelaEncaminhamento+0x10f>
    3a48:	90                   	nop
    3a49:	48 8b 45 e8          	mov    -0x18(%rbp),%rax
    3a4d:	64 48 33 04 25 28 00 	xor    %fs:0x28,%rax
    3a54:	00 00 
    3a56:	74 05                	je     3a5d <imprimeNaTelaEncaminhamento+0x124>
    3a58:	e8 00 00 00 00       	call   3a5d <imprimeNaTelaEncaminhamento+0x124>
    3a5d:	48 83 c4 38          	add    $0x38,%rsp
    3a61:	5b                   	pop    %rbx
    3a62:	5d                   	pop    %rbp
    3a63:	c3                   	ret    

0000000000003a64 <imprimeEmArquivoEncaminhamento>:
    3a64:	f3 0f 1e fa          	endbr64 
    3a68:	55                   	push   %rbp
    3a69:	48 89 e5             	mov    %rsp,%rbp
    3a6c:	53                   	push   %rbx
    3a6d:	48 81 ec 28 04 00 00 	sub    $0x428,%rsp
    3a74:	48 89 bd d8 fb ff ff 	mov    %rdi,-0x428(%rbp)
    3a7b:	48 89 b5 d0 fb ff ff 	mov    %rsi,-0x430(%rbp)
    3a82:	64 48 8b 04 25 28 00 	mov    %fs:0x28,%rax
    3a89:	00 00 
    3a8b:	48 89 45 e8          	mov    %rax,-0x18(%rbp)
    3a8f:	31 c0                	xor    %eax,%eax
    3a91:	48 8b 95 d0 fb ff ff 	mov    -0x430(%rbp),%rdx
    3a98:	48 8d 85 00 fc ff ff 	lea    -0x400(%rbp),%rax
    3a9f:	48 8d 0d 00 00 00 00 	lea    0x0(%rip),%rcx        # 3aa6 <imprimeEmArquivoEncaminhamento+0x42>
    3aa6:	48 8d 35 00 00 00 00 	lea    0x0(%rip),%rsi        # 3aad <imprimeEmArquivoEncaminhamento+0x49>
    3aad:	48 89 c7             	mov    %rax,%rdi
    3ab0:	b8 00 00 00 00       	mov    $0x0,%eax
    3ab5:	e8 00 00 00 00       	call   3aba <imprimeEmArquivoEncaminhamento+0x56>
    3aba:	48 8d 85 00 fc ff ff 	lea    -0x400(%rbp),%rax
    3ac1:	48 8d 35 00 00 00 00 	lea    0x0(%rip),%rsi        # 3ac8 <imprimeEmArquivoEncaminhamento+0x64>
    3ac8:	48 89 c7             	mov    %rax,%rdi
    3acb:	e8 00 00 00 00       	call   3ad0 <imprimeEmArquivoEncaminhamento+0x6c>
    3ad0:	48 89 85 e0 fb ff ff 	mov    %rax,-0x420(%rbp)
    3ad7:	48 8b 85 d8 fb ff ff 	mov    -0x428(%rbp),%rax
    3ade:	48 89 85 e8 fb ff ff 	mov    %rax,-0x418(%rbp)
    3ae5:	48 8b 85 e8 fb ff ff 	mov    -0x418(%rbp),%rax
    3aec:	48 8b 00             	mov    (%rax),%rax
    3aef:	48 89 c7             	mov    %rax,%rdi
    3af2:	e8 00 00 00 00       	call   3af7 <imprimeEmArquivoEncaminhamento+0x93>
    3af7:	48 89 c2             	mov    %rax,%rdx
    3afa:	48 8b 85 e0 fb ff ff 	mov    -0x420(%rbp),%rax
    3b01:	48 8d 35 00 00 00 00 	lea    0x0(%rip),%rsi        # 3b08 <imprimeEmArquivoEncaminhamento+0xa4>
    3b08:	48 89 c7             	mov    %rax,%rdi
    3b0b:	b8 00 00 00 00       	mov    $0x0,%eax
    3b10:	e8 00 00 00 00       	call   3b15 <imprimeEmArquivoEncaminhamento+0xb1>
    3b15:	48 8b 85 e8 fb ff ff 	mov    -0x418(%rbp),%rax
    3b1c:	48 8b 00             	mov    (%rax),%rax
    3b1f:	48 89 c7             	mov    %rax,%rdi
    3b22:	e8 00 00 00 00       	call   3b27 <imprimeEmArquivoEncaminhamento+0xc3>
    3b27:	48 89 c2             	mov    %rax,%rdx
    3b2a:	48 8b 85 e0 fb ff ff 	mov    -0x420(%rbp),%rax
    3b31:	48 8d 35 00 00 00 00 	lea    0x0(%rip),%rsi        # 3b38 <imprimeEmArquivoEncaminhamento+0xd4>
    3b38:	48 89 c7             	mov    %rax,%rdi
    3b3b:	b8 00 00 00 00       	mov    $0x0,%eax
    3b40:	e8 00 00 00 00       	call   3b45 <imprimeEmArquivoEncaminhamento+0xe1>
    3b45:	48 8b 85 e8 fb ff ff 	mov    -0x418(%rbp),%rax
    3b4c:	48 8d 50 18          	lea    0x18(%rax),%rdx
    3b50:	48 8b 85 e0 fb ff ff 	mov    -0x420(%rbp),%rax
    3b57:	48 8d 35 00 00 00 00 	lea    0x0(%rip),%rsi        # 3b5e <imprimeEmArquivoEncaminhamento+0xfa>
    3b5e:	48 89 c7             	mov    %rax,%rdi
    3b61:	b8 00 00 00 00       	mov    $0x0,%eax
    3b66:	e8 00 00 00 00       	call   3b6b <imprimeEmArquivoEncaminhamento+0x107>
    3b6b:	48 8b 85 e8 fb ff ff 	mov    -0x418(%rbp),%rax
    3b72:	48 8d 50 4a          	lea    0x4a(%rax),%rdx
    3b76:	48 8b 85 e0 fb ff ff 	mov    -0x420(%rbp),%rax
    3b7d:	48 8d 35 00 00 00 00 	lea    0x0(%rip),%rsi        # 3b84 <imprimeEmArquivoEncaminhamento+0x120>
    3b84:	48 89 c7             	mov    %rax,%rdi
    3b87:	b8 00 00 00 00       	mov    $0x0,%eax
    3b8c:	e8 00 00 00 00       	call   3b91 <imprimeEmArquivoEncaminhamento+0x12d>
    3b91:	48 8b 85 e8 fb ff ff 	mov    -0x418(%rbp),%rax
    3b98:	48 8b 40 08          	mov    0x8(%rax),%rax
    3b9c:	48 89 c7             	mov    %rax,%rdi
    3b9f:	e8 00 00 00 00       	call   3ba4 <imprimeEmArquivoEncaminhamento+0x140>
    3ba4:	48 89 c3             	mov    %rax,%rbx
    3ba7:	48 8b 85 e8 fb ff ff 	mov    -0x418(%rbp),%rax
    3bae:	48 8b 40 08          	mov    0x8(%rax),%rax
    3bb2:	48 89 c7             	mov    %rax,%rdi
    3bb5:	e8 00 00 00 00       	call   3bba <imprimeEmArquivoEncaminhamento+0x156>
    3bba:	48 89 c2             	mov    %rax,%rdx
    3bbd:	48 8b 85 e0 fb ff ff 	mov    -0x420(%rbp),%rax
    3bc4:	48 89 d9             	mov    %rbx,%rcx
    3bc7:	48 8d 35 00 00 00 00 	lea    0x0(%rip),%rsi        # 3bce <imprimeEmArquivoEncaminhamento+0x16a>
    3bce:	48 89 c7             	mov    %rax,%rdi
    3bd1:	b8 00 00 00 00       	mov    $0x0,%eax
    3bd6:	e8 00 00 00 00       	call   3bdb <imprimeEmArquivoEncaminhamento+0x177>
    3bdb:	48 8b 85 e8 fb ff ff 	mov    -0x418(%rbp),%rax
    3be2:	48 8b 40 10          	mov    0x10(%rax),%rax
    3be6:	48 8d 95 f4 fb ff ff 	lea    -0x40c(%rbp),%rdx
    3bed:	48 89 d6             	mov    %rdx,%rsi
    3bf0:	48 89 c7             	mov    %rax,%rdi
    3bf3:	e8 00 00 00 00       	call   3bf8 <imprimeEmArquivoEncaminhamento+0x194>
    3bf8:	48 8d 95 f4 fb ff ff 	lea    -0x40c(%rbp),%rdx
    3bff:	48 8b 85 e0 fb ff ff 	mov    -0x420(%rbp),%rax
    3c06:	48 8d 35 00 00 00 00 	lea    0x0(%rip),%rsi        # 3c0d <imprimeEmArquivoEncaminhamento+0x1a9>
    3c0d:	48 89 c7             	mov    %rax,%rdi
    3c10:	b8 00 00 00 00       	mov    $0x0,%eax
    3c15:	e8 00 00 00 00       	call   3c1a <imprimeEmArquivoEncaminhamento+0x1b6>
    3c1a:	48 8b 85 e0 fb ff ff 	mov    -0x420(%rbp),%rax
    3c21:	48 89 c7             	mov    %rax,%rdi
    3c24:	e8 00 00 00 00       	call   3c29 <imprimeEmArquivoEncaminhamento+0x1c5>
    3c29:	90                   	nop
    3c2a:	48 8b 45 e8          	mov    -0x18(%rbp),%rax
    3c2e:	64 48 33 04 25 28 00 	xor    %fs:0x28,%rax
    3c35:	00 00 
    3c37:	74 05                	je     3c3e <imprimeEmArquivoEncaminhamento+0x1da>
    3c39:	e8 00 00 00 00       	call   3c3e <imprimeEmArquivoEncaminhamento+0x1da>
    3c3e:	48 81 c4 28 04 00 00 	add    $0x428,%rsp
    3c45:	5b                   	pop    %rbx
    3c46:	5d                   	pop    %rbp
    3c47:	c3                   	ret    

0000000000003c48 <criaLesao>:
    3c48:	f3 0f 1e fa          	endbr64 
    3c4c:	55                   	push   %rbp
    3c4d:	48 89 e5             	mov    %rsp,%rbp
    3c50:	48 83 ec 40          	sub    $0x40,%rsp
    3c54:	48 89 7d e8          	mov    %rdi,-0x18(%rbp)
    3c58:	48 89 75 e0          	mov    %rsi,-0x20(%rbp)
    3c5c:	48 89 55 d8          	mov    %rdx,-0x28(%rbp)
    3c60:	89 4d d4             	mov    %ecx,-0x2c(%rbp)
    3c63:	44 89 45 d0          	mov    %r8d,-0x30(%rbp)
    3c67:	44 89 4d cc          	mov    %r9d,-0x34(%rbp)
    3c6b:	be 7c 00 00 00       	mov    $0x7c,%esi
    3c70:	bf 01 00 00 00       	mov    $0x1,%edi
    3c75:	e8 00 00 00 00       	call   3c7a <criaLesao+0x32>
    3c7a:	48 89 45 f8          	mov    %rax,-0x8(%rbp)
    3c7e:	48 8b 45 f8          	mov    -0x8(%rbp),%rax
    3c82:	c7 00 ff ff ff ff    	movl   $0xffffffff,(%rax)
    3c88:	48 8b 45 f8          	mov    -0x8(%rbp),%rax
    3c8c:	48 8d 50 04          	lea    0x4(%rax),%rdx
    3c90:	48 8b 45 e8          	mov    -0x18(%rbp),%rax
    3c94:	48 89 c6             	mov    %rax,%rsi
    3c97:	48 89 d7             	mov    %rdx,%rdi
    3c9a:	e8 00 00 00 00       	call   3c9f <criaLesao+0x57>
    3c9f:	48 8b 45 f8          	mov    -0x8(%rbp),%rax
    3ca3:	48 8d 50 09          	lea    0x9(%rax),%rdx
    3ca7:	48 8b 45 e0          	mov    -0x20(%rbp),%rax
    3cab:	48 89 c6             	mov    %rax,%rsi
    3cae:	48 89 d7             	mov    %rdx,%rdi
    3cb1:	e8 00 00 00 00       	call   3cb6 <criaLesao+0x6e>
    3cb6:	48 8b 45 f8          	mov    -0x8(%rbp),%rax
    3cba:	48 8d 50 3b          	lea    0x3b(%rax),%rdx
    3cbe:	48 8b 45 d8          	mov    -0x28(%rbp),%rax
    3cc2:	48 89 c6             	mov    %rax,%rsi
    3cc5:	48 89 d7             	mov    %rdx,%rdi
    3cc8:	e8 00 00 00 00       	call   3ccd <criaLesao+0x85>
    3ccd:	48 8b 45 f8          	mov    -0x8(%rbp),%rax
    3cd1:	8b 55 d4             	mov    -0x2c(%rbp),%edx
    3cd4:	89 50 70             	mov    %edx,0x70(%rax)
    3cd7:	48 8b 45 f8          	mov    -0x8(%rbp),%rax
    3cdb:	8b 55 d0             	mov    -0x30(%rbp),%edx
    3cde:	89 50 74             	mov    %edx,0x74(%rax)
    3ce1:	48 8b 45 f8          	mov    -0x8(%rbp),%rax
    3ce5:	8b 55 cc             	mov    -0x34(%rbp),%edx
    3ce8:	89 50 78             	mov    %edx,0x78(%rax)
    3ceb:	48 8b 45 f8          	mov    -0x8(%rbp),%rax
    3cef:	c9                   	leave  
    3cf0:	c3                   	ret    

0000000000003cf1 <lerLesao>:
    3cf1:	f3 0f 1e fa          	endbr64 
    3cf5:	55                   	push   %rbp
    3cf6:	48 89 e5             	mov    %rsp,%rbp
    3cf9:	48 81 ec 90 00 00 00 	sub    $0x90,%rsp
    3d00:	64 48 8b 04 25 28 00 	mov    %fs:0x28,%rax
    3d07:	00 00 
    3d09:	48 89 45 f8          	mov    %rax,-0x8(%rbp)
    3d0d:	31 c0                	xor    %eax,%eax
    3d0f:	48 8d 3d 00 00 00 00 	lea    0x0(%rip),%rdi        # 3d16 <lerLesao+0x25>
    3d16:	b8 00 00 00 00       	mov    $0x0,%eax
    3d1b:	e8 00 00 00 00       	call   3d20 <lerLesao+0x2f>
    3d20:	48 8d 45 80          	lea    -0x80(%rbp),%rax
    3d24:	48 89 c6             	mov    %rax,%rsi
    3d27:	48 8d 3d 00 00 00 00 	lea    0x0(%rip),%rdi        # 3d2e <lerLesao+0x3d>
    3d2e:	b8 00 00 00 00       	mov    $0x0,%eax
    3d33:	e8 00 00 00 00       	call   3d38 <lerLesao+0x47>
    3d38:	48 8d 3d 00 00 00 00 	lea    0x0(%rip),%rdi        # 3d3f <lerLesao+0x4e>
    3d3f:	b8 00 00 00 00       	mov    $0x0,%eax
    3d44:	e8 00 00 00 00       	call   3d49 <lerLesao+0x58>
    3d49:	48 8d 45 c0          	lea    -0x40(%rbp),%rax
    3d4d:	48 89 c6             	mov    %rax,%rsi
    3d50:	48 8d 3d 00 00 00 00 	lea    0x0(%rip),%rdi        # 3d57 <lerLesao+0x66>
    3d57:	b8 00 00 00 00       	mov    $0x0,%eax
    3d5c:	e8 00 00 00 00       	call   3d61 <lerLesao+0x70>
    3d61:	48 8d 3d 00 00 00 00 	lea    0x0(%rip),%rdi        # 3d68 <lerLesao+0x77>
    3d68:	b8 00 00 00 00       	mov    $0x0,%eax
    3d6d:	e8 00 00 00 00       	call   3d72 <lerLesao+0x81>
    3d72:	48 8d 85 74 ff ff ff 	lea    -0x8c(%rbp),%rax
    3d79:	48 89 c6             	mov    %rax,%rsi
    3d7c:	48 8d 3d 00 00 00 00 	lea    0x0(%rip),%rdi        # 3d83 <lerLesao+0x92>
    3d83:	b8 00 00 00 00       	mov    $0x0,%eax
    3d88:	e8 00 00 00 00       	call   3d8d <lerLesao+0x9c>
    3d8d:	48 8d 3d 00 00 00 00 	lea    0x0(%rip),%rdi        # 3d94 <lerLesao+0xa3>
    3d94:	b8 00 00 00 00       	mov    $0x0,%eax
    3d99:	e8 00 00 00 00       	call   3d9e <lerLesao+0xad>
    3d9e:	48 8d 85 78 ff ff ff 	lea    -0x88(%rbp),%rax
    3da5:	48 89 c6             	mov    %rax,%rsi
    3da8:	48 8d 3d 00 00 00 00 	lea    0x0(%rip),%rdi        # 3daf <lerLesao+0xbe>
    3daf:	b8 00 00 00 00       	mov    $0x0,%eax
    3db4:	e8 00 00 00 00       	call   3db9 <lerLesao+0xc8>
    3db9:	48 8d 3d 00 00 00 00 	lea    0x0(%rip),%rdi        # 3dc0 <lerLesao+0xcf>
    3dc0:	b8 00 00 00 00       	mov    $0x0,%eax
    3dc5:	e8 00 00 00 00       	call   3dca <lerLesao+0xd9>
    3dca:	48 8d 85 7c ff ff ff 	lea    -0x84(%rbp),%rax
    3dd1:	48 89 c6             	mov    %rax,%rsi
    3dd4:	48 8d 3d 00 00 00 00 	lea    0x0(%rip),%rdi        # 3ddb <lerLesao+0xea>
    3ddb:	b8 00 00 00 00       	mov    $0x0,%eax
    3de0:	e8 00 00 00 00       	call   3de5 <lerLesao+0xf4>
    3de5:	8b bd 7c ff ff ff    	mov    -0x84(%rbp),%edi
    3deb:	8b b5 78 ff ff ff    	mov    -0x88(%rbp),%esi
    3df1:	8b 8d 74 ff ff ff    	mov    -0x8c(%rbp),%ecx
    3df7:	48 8d 55 c0          	lea    -0x40(%rbp),%rdx
    3dfb:	48 8d 45 80          	lea    -0x80(%rbp),%rax
    3dff:	41 89 f9             	mov    %edi,%r9d
    3e02:	41 89 f0             	mov    %esi,%r8d
    3e05:	48 89 c6             	mov    %rax,%rsi
    3e08:	48 8d 3d 00 00 00 00 	lea    0x0(%rip),%rdi        # 3e0f <lerLesao+0x11e>
    3e0f:	e8 00 00 00 00       	call   3e14 <lerLesao+0x123>
    3e14:	48 8b 55 f8          	mov    -0x8(%rbp),%rdx
    3e18:	64 48 33 14 25 28 00 	xor    %fs:0x28,%rdx
    3e1f:	00 00 
    3e21:	74 05                	je     3e28 <lerLesao+0x137>
    3e23:	e8 00 00 00 00       	call   3e28 <lerLesao+0x137>
    3e28:	c9                   	leave  
    3e29:	c3                   	ret    

0000000000003e2a <printLesao>:
    3e2a:	f3 0f 1e fa          	endbr64 
    3e2e:	55                   	push   %rbp
    3e2f:	48 89 e5             	mov    %rsp,%rbp
    3e32:	48 83 ec 10          	sub    $0x10,%rsp
    3e36:	48 89 7d f8          	mov    %rdi,-0x8(%rbp)
    3e3a:	48 8b 45 f8          	mov    -0x8(%rbp),%rax
    3e3e:	8b 00                	mov    (%rax),%eax
    3e40:	89 c6                	mov    %eax,%esi
    3e42:	48 8d 3d 00 00 00 00 	lea    0x0(%rip),%rdi        # 3e49 <printLesao+0x1f>
    3e49:	b8 00 00 00 00       	mov    $0x0,%eax
    3e4e:	e8 00 00 00 00       	call   3e53 <printLesao+0x29>
    3e53:	48 8b 45 f8          	mov    -0x8(%rbp),%rax
    3e57:	48 83 c0 04          	add    $0x4,%rax
    3e5b:	48 89 c6             	mov    %rax,%rsi
    3e5e:	48 8d 3d 00 00 00 00 	lea    0x0(%rip),%rdi        # 3e65 <printLesao+0x3b>
    3e65:	b8 00 00 00 00       	mov    $0x0,%eax
    3e6a:	e8 00 00 00 00       	call   3e6f <printLesao+0x45>
    3e6f:	48 8b 45 f8          	mov    -0x8(%rbp),%rax
    3e73:	48 83 c0 09          	add    $0x9,%rax
    3e77:	48 89 c6             	mov    %rax,%rsi
    3e7a:	48 8d 3d 00 00 00 00 	lea    0x0(%rip),%rdi        # 3e81 <printLesao+0x57>
    3e81:	b8 00 00 00 00       	mov    $0x0,%eax
    3e86:	e8 00 00 00 00       	call   3e8b <printLesao+0x61>
    3e8b:	48 8b 45 f8          	mov    -0x8(%rbp),%rax
    3e8f:	48 83 c0 3b          	add    $0x3b,%rax
    3e93:	48 89 c6             	mov    %rax,%rsi
    3e96:	48 8d 3d 00 00 00 00 	lea    0x0(%rip),%rdi        # 3e9d <printLesao+0x73>
    3e9d:	b8 00 00 00 00       	mov    $0x0,%eax
    3ea2:	e8 00 00 00 00       	call   3ea7 <printLesao+0x7d>
    3ea7:	48 8b 45 f8          	mov    -0x8(%rbp),%rax
    3eab:	8b 40 70             	mov    0x70(%rax),%eax
    3eae:	89 c6                	mov    %eax,%esi
    3eb0:	48 8d 3d 00 00 00 00 	lea    0x0(%rip),%rdi        # 3eb7 <printLesao+0x8d>
    3eb7:	b8 00 00 00 00       	mov    $0x0,%eax
    3ebc:	e8 00 00 00 00       	call   3ec1 <printLesao+0x97>
    3ec1:	48 8b 45 f8          	mov    -0x8(%rbp),%rax
    3ec5:	8b 40 74             	mov    0x74(%rax),%eax
    3ec8:	89 c6                	mov    %eax,%esi
    3eca:	48 8d 3d 00 00 00 00 	lea    0x0(%rip),%rdi        # 3ed1 <printLesao+0xa7>
    3ed1:	b8 00 00 00 00       	mov    $0x0,%eax
    3ed6:	e8 00 00 00 00       	call   3edb <printLesao+0xb1>
    3edb:	48 8b 45 f8          	mov    -0x8(%rbp),%rax
    3edf:	8b 40 78             	mov    0x78(%rax),%eax
    3ee2:	89 c6                	mov    %eax,%esi
    3ee4:	48 8d 3d 00 00 00 00 	lea    0x0(%rip),%rdi        # 3eeb <printLesao+0xc1>
    3eeb:	b8 00 00 00 00       	mov    $0x0,%eax
    3ef0:	e8 00 00 00 00       	call   3ef5 <printLesao+0xcb>
    3ef5:	90                   	nop
    3ef6:	c9                   	leave  
    3ef7:	c3                   	ret    

0000000000003ef8 <escreveBinLesao>:
    3ef8:	f3 0f 1e fa          	endbr64 
    3efc:	55                   	push   %rbp
    3efd:	48 89 e5             	mov    %rsp,%rbp
    3f00:	48 83 ec 10          	sub    $0x10,%rsp
    3f04:	48 89 7d f8          	mov    %rdi,-0x8(%rbp)
    3f08:	48 89 75 f0          	mov    %rsi,-0x10(%rbp)
    3f0c:	48 8b 55 f0          	mov    -0x10(%rbp),%rdx
    3f10:	48 8b 45 f8          	mov    -0x8(%rbp),%rax
    3f14:	48 89 d1             	mov    %rdx,%rcx
    3f17:	ba 01 00 00 00       	mov    $0x1,%edx
    3f1c:	be 7c 00 00 00       	mov    $0x7c,%esi
    3f21:	48 89 c7             	mov    %rax,%rdi
    3f24:	e8 00 00 00 00       	call   3f29 <escreveBinLesao+0x31>
    3f29:	90                   	nop
    3f2a:	c9                   	leave  
    3f2b:	c3                   	ret    

0000000000003f2c <lerBinLesao>:
    3f2c:	f3 0f 1e fa          	endbr64 
    3f30:	55                   	push   %rbp
    3f31:	48 89 e5             	mov    %rsp,%rbp
    3f34:	48 83 ec 20          	sub    $0x20,%rsp
    3f38:	48 89 7d e8          	mov    %rdi,-0x18(%rbp)
    3f3c:	be 7c 00 00 00       	mov    $0x7c,%esi
    3f41:	bf 01 00 00 00       	mov    $0x1,%edi
    3f46:	e8 00 00 00 00       	call   3f4b <lerBinLesao+0x1f>
    3f4b:	48 89 45 f8          	mov    %rax,-0x8(%rbp)
    3f4f:	48 8b 55 e8          	mov    -0x18(%rbp),%rdx
    3f53:	48 8b 45 f8          	mov    -0x8(%rbp),%rax
    3f57:	48 89 d1             	mov    %rdx,%rcx
    3f5a:	ba 01 00 00 00       	mov    $0x1,%edx
    3f5f:	be 7c 00 00 00       	mov    $0x7c,%esi
    3f64:	48 89 c7             	mov    %rax,%rdi
    3f67:	e8 00 00 00 00       	call   3f6c <lerBinLesao+0x40>
    3f6c:	48 8b 45 f8          	mov    -0x8(%rbp),%rax
    3f70:	c9                   	leave  
    3f71:	c3                   	ret    

0000000000003f72 <obtemRotuloLesao>:
    3f72:	f3 0f 1e fa          	endbr64 
    3f76:	55                   	push   %rbp
    3f77:	48 89 e5             	mov    %rsp,%rbp
    3f7a:	48 89 7d f8          	mov    %rdi,-0x8(%rbp)
    3f7e:	48 8b 45 f8          	mov    -0x8(%rbp),%rax
    3f82:	48 83 c0 04          	add    $0x4,%rax
    3f86:	5d                   	pop    %rbp
    3f87:	c3                   	ret    

0000000000003f88 <defineRotuloLesao>:
    3f88:	f3 0f 1e fa          	endbr64 
    3f8c:	55                   	push   %rbp
    3f8d:	48 89 e5             	mov    %rsp,%rbp
    3f90:	48 83 ec 10          	sub    $0x10,%rsp
    3f94:	48 89 7d f8          	mov    %rdi,-0x8(%rbp)
    3f98:	89 75 f4             	mov    %esi,-0xc(%rbp)
    3f9b:	48 8b 45 f8          	mov    -0x8(%rbp),%rax
    3f9f:	48 8d 48 04          	lea    0x4(%rax),%rcx
    3fa3:	8b 45 f4             	mov    -0xc(%rbp),%eax
    3fa6:	89 c2                	mov    %eax,%edx
    3fa8:	48 8d 35 00 00 00 00 	lea    0x0(%rip),%rsi        # 3faf <defineRotuloLesao+0x27>
    3faf:	48 89 cf             	mov    %rcx,%rdi
    3fb2:	b8 00 00 00 00       	mov    $0x0,%eax
    3fb7:	e8 00 00 00 00       	call   3fbc <defineRotuloLesao+0x34>
    3fbc:	90                   	nop
    3fbd:	c9                   	leave  
    3fbe:	c3                   	ret    

0000000000003fbf <obtemIdLesao>:
    3fbf:	f3 0f 1e fa          	endbr64 
    3fc3:	55                   	push   %rbp
    3fc4:	48 89 e5             	mov    %rsp,%rbp
    3fc7:	48 89 7d f8          	mov    %rdi,-0x8(%rbp)
    3fcb:	48 8b 45 f8          	mov    -0x8(%rbp),%rax
    3fcf:	8b 00                	mov    (%rax),%eax
    3fd1:	5d                   	pop    %rbp
    3fd2:	c3                   	ret    

0000000000003fd3 <defineIdLesao>:
    3fd3:	f3 0f 1e fa          	endbr64 
    3fd7:	55                   	push   %rbp
    3fd8:	48 89 e5             	mov    %rsp,%rbp
    3fdb:	48 89 7d f8          	mov    %rdi,-0x8(%rbp)
    3fdf:	89 75 f4             	mov    %esi,-0xc(%rbp)
    3fe2:	48 8b 45 f8          	mov    -0x8(%rbp),%rax
    3fe6:	8b 55 f4             	mov    -0xc(%rbp),%edx
    3fe9:	89 10                	mov    %edx,(%rax)
    3feb:	90                   	nop
    3fec:	5d                   	pop    %rbp
    3fed:	c3                   	ret    

0000000000003fee <obtemDiagnosticoLesao>:
    3fee:	f3 0f 1e fa          	endbr64 
    3ff2:	55                   	push   %rbp
    3ff3:	48 89 e5             	mov    %rsp,%rbp
    3ff6:	48 89 7d f8          	mov    %rdi,-0x8(%rbp)
    3ffa:	48 8b 45 f8          	mov    -0x8(%rbp),%rax
    3ffe:	48 83 c0 09          	add    $0x9,%rax
    4002:	5d                   	pop    %rbp
    4003:	c3                   	ret    

0000000000004004 <obtemRegiaoLesao>:
    4004:	f3 0f 1e fa          	endbr64 
    4008:	55                   	push   %rbp
    4009:	48 89 e5             	mov    %rsp,%rbp
    400c:	48 89 7d f8          	mov    %rdi,-0x8(%rbp)
    4010:	48 8b 45 f8          	mov    -0x8(%rbp),%rax
    4014:	48 83 c0 3b          	add    $0x3b,%rax
    4018:	5d                   	pop    %rbp
    4019:	c3                   	ret    

000000000000401a <obtemTamanhoLesao>:
    401a:	f3 0f 1e fa          	endbr64 
    401e:	55                   	push   %rbp
    401f:	48 89 e5             	mov    %rsp,%rbp
    4022:	48 89 7d f8          	mov    %rdi,-0x8(%rbp)
    4026:	48 8b 45 f8          	mov    -0x8(%rbp),%rax
    402a:	8b 40 70             	mov    0x70(%rax),%eax
    402d:	5d                   	pop    %rbp
    402e:	c3                   	ret    

000000000000402f <obtemCirurgiaLesao>:
    402f:	f3 0f 1e fa          	endbr64 
    4033:	55                   	push   %rbp
    4034:	48 89 e5             	mov    %rsp,%rbp
    4037:	48 89 7d f8          	mov    %rdi,-0x8(%rbp)
    403b:	48 8b 45 f8          	mov    -0x8(%rbp),%rax
    403f:	8b 40 74             	mov    0x74(%rax),%eax
    4042:	5d                   	pop    %rbp
    4043:	c3                   	ret    

0000000000004044 <obtemCrioterapiaLesao>:
    4044:	f3 0f 1e fa          	endbr64 
    4048:	55                   	push   %rbp
    4049:	48 89 e5             	mov    %rsp,%rbp
    404c:	48 89 7d f8          	mov    %rdi,-0x8(%rbp)
    4050:	48 8b 45 f8          	mov    -0x8(%rbp),%rax
    4054:	8b 40 78             	mov    0x78(%rax),%eax
    4057:	5d                   	pop    %rbp
    4058:	c3                   	ret    

0000000000004059 <desalocaLesao>:
    4059:	f3 0f 1e fa          	endbr64 
    405d:	55                   	push   %rbp
    405e:	48 89 e5             	mov    %rsp,%rbp
    4061:	48 83 ec 10          	sub    $0x10,%rsp
    4065:	48 89 7d f8          	mov    %rdi,-0x8(%rbp)
    4069:	48 83 7d f8 00       	cmpq   $0x0,-0x8(%rbp)
    406e:	74 14                	je     4084 <desalocaLesao+0x2b>
    4070:	48 8b 45 f8          	mov    -0x8(%rbp),%rax
    4074:	48 89 c7             	mov    %rax,%rdi
    4077:	e8 00 00 00 00       	call   407c <desalocaLesao+0x23>
    407c:	48 c7 45 f8 00 00 00 	movq   $0x0,-0x8(%rbp)
    4083:	00 
    4084:	90                   	nop
    4085:	c9                   	leave  
    4086:	c3                   	ret    

0000000000004087 <criaListaBusca>:
    4087:	f3 0f 1e fa          	endbr64 
    408b:	55                   	push   %rbp
    408c:	48 89 e5             	mov    %rsp,%rbp
    408f:	48 83 ec 10          	sub    $0x10,%rsp
    4093:	be 10 00 00 00       	mov    $0x10,%esi
    4098:	bf 01 00 00 00       	mov    $0x1,%edi
    409d:	e8 00 00 00 00       	call   40a2 <criaListaBusca+0x1b>
    40a2:	48 89 45 f8          	mov    %rax,-0x8(%rbp)
    40a6:	48 8b 45 f8          	mov    -0x8(%rbp),%rax
    40aa:	48 c7 00 00 00 00 00 	movq   $0x0,(%rax)
    40b1:	48 8b 45 f8          	mov    -0x8(%rbp),%rax
    40b5:	c7 40 08 00 00 00 00 	movl   $0x0,0x8(%rax)
    40bc:	48 8b 45 f8          	mov    -0x8(%rbp),%rax
    40c0:	c9                   	leave  
    40c1:	c3                   	ret    

00000000000040c2 <adicionaResultadoBusca>:
    40c2:	f3 0f 1e fa          	endbr64 
    40c6:	55                   	push   %rbp
    40c7:	48 89 e5             	mov    %rsp,%rbp
    40ca:	53                   	push   %rbx
    40cb:	48 83 ec 18          	sub    $0x18,%rsp
    40cf:	48 89 7d e8          	mov    %rdi,-0x18(%rbp)
    40d3:	48 89 75 e0          	mov    %rsi,-0x20(%rbp)
    40d7:	48 8b 45 e8          	mov    -0x18(%rbp),%rax
    40db:	8b 40 08             	mov    0x8(%rax),%eax
    40de:	83 c0 01             	add    $0x1,%eax
    40e1:	48 98                	cltq   
    40e3:	48 8d 14 c5 00 00 00 	lea    0x0(,%rax,8),%rdx
    40ea:	00 
    40eb:	48 8b 45 e8          	mov    -0x18(%rbp),%rax
    40ef:	48 8b 00             	mov    (%rax),%rax
    40f2:	48 89 d6             	mov    %rdx,%rsi
    40f5:	48 89 c7             	mov    %rax,%rdi
    40f8:	e8 00 00 00 00       	call   40fd <adicionaResultadoBusca+0x3b>
    40fd:	48 8b 55 e8          	mov    -0x18(%rbp),%rdx
    4101:	48 89 02             	mov    %rax,(%rdx)
    4104:	48 8b 45 e0          	mov    -0x20(%rbp),%rax
    4108:	48 89 c7             	mov    %rax,%rdi
    410b:	e8 00 00 00 00       	call   4110 <adicionaResultadoBusca+0x4e>
    4110:	48 83 c0 01          	add    $0x1,%rax
    4114:	48 8b 55 e8          	mov    -0x18(%rbp),%rdx
    4118:	48 8b 0a             	mov    (%rdx),%rcx
    411b:	48 8b 55 e8          	mov    -0x18(%rbp),%rdx
    411f:	8b 52 08             	mov    0x8(%rdx),%edx
    4122:	48 63 d2             	movslq %edx,%rdx
    4125:	48 c1 e2 03          	shl    $0x3,%rdx
    4129:	48 8d 1c 11          	lea    (%rcx,%rdx,1),%rbx
    412d:	be 01 00 00 00       	mov    $0x1,%esi
    4132:	48 89 c7             	mov    %rax,%rdi
    4135:	e8 00 00 00 00       	call   413a <adicionaResultadoBusca+0x78>
    413a:	48 89 03             	mov    %rax,(%rbx)
    413d:	48 8b 45 e8          	mov    -0x18(%rbp),%rax
    4141:	48 8b 10             	mov    (%rax),%rdx
    4144:	48 8b 45 e8          	mov    -0x18(%rbp),%rax
    4148:	8b 40 08             	mov    0x8(%rax),%eax
    414b:	48 98                	cltq   
    414d:	48 c1 e0 03          	shl    $0x3,%rax
    4151:	48 01 d0             	add    %rdx,%rax
    4154:	48 8b 00             	mov    (%rax),%rax
    4157:	48 8b 55 e0          	mov    -0x20(%rbp),%rdx
    415b:	48 89 d6             	mov    %rdx,%rsi
    415e:	48 89 c7             	mov    %rax,%rdi
    4161:	e8 00 00 00 00       	call   4166 <adicionaResultadoBusca+0xa4>
    4166:	48 8b 45 e8          	mov    -0x18(%rbp),%rax
    416a:	8b 40 08             	mov    0x8(%rax),%eax
    416d:	8d 50 01             	lea    0x1(%rax),%edx
    4170:	48 8b 45 e8          	mov    -0x18(%rbp),%rax
    4174:	89 50 08             	mov    %edx,0x8(%rax)
    4177:	90                   	nop
    4178:	48 83 c4 18          	add    $0x18,%rsp
    417c:	5b                   	pop    %rbx
    417d:	5d                   	pop    %rbp
    417e:	c3                   	ret    

000000000000417f <desalocaListaBuscaGenerico>:
    417f:	f3 0f 1e fa          	endbr64 
    4183:	55                   	push   %rbp
    4184:	48 89 e5             	mov    %rsp,%rbp
    4187:	48 83 ec 10          	sub    $0x10,%rsp
    418b:	48 89 7d f8          	mov    %rdi,-0x8(%rbp)
    418f:	48 83 7d f8 00       	cmpq   $0x0,-0x8(%rbp)
    4194:	74 0c                	je     41a2 <desalocaListaBuscaGenerico+0x23>
    4196:	48 8b 45 f8          	mov    -0x8(%rbp),%rax
    419a:	48 89 c7             	mov    %rax,%rdi
    419d:	e8 00 00 00 00       	call   41a2 <desalocaListaBuscaGenerico+0x23>
    41a2:	90                   	nop
    41a3:	c9                   	leave  
    41a4:	c3                   	ret    

00000000000041a5 <desalocaListaBusca>:
    41a5:	f3 0f 1e fa          	endbr64 
    41a9:	55                   	push   %rbp
    41aa:	48 89 e5             	mov    %rsp,%rbp
    41ad:	48 83 ec 20          	sub    $0x20,%rsp
    41b1:	48 89 7d e8          	mov    %rdi,-0x18(%rbp)
    41b5:	48 83 7d e8 00       	cmpq   $0x0,-0x18(%rbp)
    41ba:	74 53                	je     420f <desalocaListaBusca+0x6a>
    41bc:	c7 45 fc 00 00 00 00 	movl   $0x0,-0x4(%rbp)
    41c3:	eb 23                	jmp    41e8 <desalocaListaBusca+0x43>
    41c5:	48 8b 45 e8          	mov    -0x18(%rbp),%rax
    41c9:	48 8b 00             	mov    (%rax),%rax
    41cc:	8b 55 fc             	mov    -0x4(%rbp),%edx
    41cf:	48 63 d2             	movslq %edx,%rdx
    41d2:	48 c1 e2 03          	shl    $0x3,%rdx
    41d6:	48 01 d0             	add    %rdx,%rax
    41d9:	48 8b 00             	mov    (%rax),%rax
    41dc:	48 89 c7             	mov    %rax,%rdi
    41df:	e8 00 00 00 00       	call   41e4 <desalocaListaBusca+0x3f>
    41e4:	83 45 fc 01          	addl   $0x1,-0x4(%rbp)
    41e8:	48 8b 45 e8          	mov    -0x18(%rbp),%rax
    41ec:	8b 40 08             	mov    0x8(%rax),%eax
    41ef:	39 45 fc             	cmp    %eax,-0x4(%rbp)
    41f2:	7c d1                	jl     41c5 <desalocaListaBusca+0x20>
    41f4:	48 8b 45 e8          	mov    -0x18(%rbp),%rax
    41f8:	48 8b 00             	mov    (%rax),%rax
    41fb:	48 89 c7             	mov    %rax,%rdi
    41fe:	e8 00 00 00 00       	call   4203 <desalocaListaBusca+0x5e>
    4203:	48 8b 45 e8          	mov    -0x18(%rbp),%rax
    4207:	48 89 c7             	mov    %rax,%rdi
    420a:	e8 00 00 00 00       	call   420f <desalocaListaBusca+0x6a>
    420f:	90                   	nop
    4210:	c9                   	leave  
    4211:	c3                   	ret    

0000000000004212 <imprimeNaTelaListaBusca>:
    4212:	f3 0f 1e fa          	endbr64 
    4216:	55                   	push   %rbp
    4217:	48 89 e5             	mov    %rsp,%rbp
    421a:	48 83 ec 20          	sub    $0x20,%rsp
    421e:	48 89 7d e8          	mov    %rdi,-0x18(%rbp)
    4222:	48 8b 45 e8          	mov    -0x18(%rbp),%rax
    4226:	48 89 45 f8          	mov    %rax,-0x8(%rbp)
    422a:	c7 45 f4 00 00 00 00 	movl   $0x0,-0xc(%rbp)
    4231:	eb 23                	jmp    4256 <imprimeNaTelaListaBusca+0x44>
    4233:	48 8b 45 f8          	mov    -0x8(%rbp),%rax
    4237:	48 8b 00             	mov    (%rax),%rax
    423a:	8b 55 f4             	mov    -0xc(%rbp),%edx
    423d:	48 63 d2             	movslq %edx,%rdx
    4240:	48 c1 e2 03          	shl    $0x3,%rdx
    4244:	48 01 d0             	add    %rdx,%rax
    4247:	48 8b 00             	mov    (%rax),%rax
    424a:	48 89 c7             	mov    %rax,%rdi
    424d:	e8 00 00 00 00       	call   4252 <imprimeNaTelaListaBusca+0x40>
    4252:	83 45 f4 01          	addl   $0x1,-0xc(%rbp)
    4256:	48 8b 45 f8          	mov    -0x8(%rbp),%rax
    425a:	8b 40 08             	mov    0x8(%rax),%eax
    425d:	39 45 f4             	cmp    %eax,-0xc(%rbp)
    4260:	7c d1                	jl     4233 <imprimeNaTelaListaBusca+0x21>
    4262:	bf 0a 00 00 00       	mov    $0xa,%edi
    4267:	e8 00 00 00 00       	call   426c <imprimeNaTelaListaBusca+0x5a>
    426c:	90                   	nop
    426d:	c9                   	leave  
    426e:	c3                   	ret    

000000000000426f <imprimeEmArquivoListaBusca>:
    426f:	f3 0f 1e fa          	endbr64 
    4273:	55                   	push   %rbp
    4274:	48 89 e5             	mov    %rsp,%rbp
    4277:	48 81 ec 20 04 00 00 	sub    $0x420,%rsp
    427e:	48 89 bd e8 fb ff ff 	mov    %rdi,-0x418(%rbp)
    4285:	48 89 b5 e0 fb ff ff 	mov    %rsi,-0x420(%rbp)
    428c:	64 48 8b 04 25 28 00 	mov    %fs:0x28,%rax
    4293:	00 00 
    4295:	48 89 45 f8          	mov    %rax,-0x8(%rbp)
    4299:	31 c0                	xor    %eax,%eax
    429b:	48 8b 95 e0 fb ff ff 	mov    -0x420(%rbp),%rdx
    42a2:	48 8d 85 10 fc ff ff 	lea    -0x3f0(%rbp),%rax
    42a9:	48 8d 0d 00 00 00 00 	lea    0x0(%rip),%rcx        # 42b0 <imprimeEmArquivoListaBusca+0x41>
    42b0:	48 8d 35 00 00 00 00 	lea    0x0(%rip),%rsi        # 42b7 <imprimeEmArquivoListaBusca+0x48>
    42b7:	48 89 c7             	mov    %rax,%rdi
    42ba:	b8 00 00 00 00       	mov    $0x0,%eax
    42bf:	e8 00 00 00 00       	call   42c4 <imprimeEmArquivoListaBusca+0x55>
    42c4:	48 8d 85 10 fc ff ff 	lea    -0x3f0(%rbp),%rax
    42cb:	48 8d 35 00 00 00 00 	lea    0x0(%rip),%rsi        # 42d2 <imprimeEmArquivoListaBusca+0x63>
    42d2:	48 89 c7             	mov    %rax,%rdi
    42d5:	e8 00 00 00 00       	call   42da <imprimeEmArquivoListaBusca+0x6b>
    42da:	48 89 85 00 fc ff ff 	mov    %rax,-0x400(%rbp)
    42e1:	48 8b 85 e8 fb ff ff 	mov    -0x418(%rbp),%rax
    42e8:	48 89 85 08 fc ff ff 	mov    %rax,-0x3f8(%rbp)
    42ef:	c7 85 fc fb ff ff 00 	movl   $0x0,-0x404(%rbp)
    42f6:	00 00 00 
    42f9:	eb 3f                	jmp    433a <imprimeEmArquivoListaBusca+0xcb>
    42fb:	48 8b 85 08 fc ff ff 	mov    -0x3f8(%rbp),%rax
    4302:	48 8b 00             	mov    (%rax),%rax
    4305:	8b 95 fc fb ff ff    	mov    -0x404(%rbp),%edx
    430b:	48 63 d2             	movslq %edx,%rdx
    430e:	48 c1 e2 03          	shl    $0x3,%rdx
    4312:	48 01 d0             	add    %rdx,%rax
    4315:	48 8b 10             	mov    (%rax),%rdx
    4318:	48 8b 85 00 fc ff ff 	mov    -0x400(%rbp),%rax
    431f:	48 8d 35 00 00 00 00 	lea    0x0(%rip),%rsi        # 4326 <imprimeEmArquivoListaBusca+0xb7>
    4326:	48 89 c7             	mov    %rax,%rdi
    4329:	b8 00 00 00 00       	mov    $0x0,%eax
    432e:	e8 00 00 00 00       	call   4333 <imprimeEmArquivoListaBusca+0xc4>
    4333:	83 85 fc fb ff ff 01 	addl   $0x1,-0x404(%rbp)
    433a:	48 8b 85 08 fc ff ff 	mov    -0x3f8(%rbp),%rax
    4341:	8b 40 08             	mov    0x8(%rax),%eax
    4344:	39 85 fc fb ff ff    	cmp    %eax,-0x404(%rbp)
    434a:	7c af                	jl     42fb <imprimeEmArquivoListaBusca+0x8c>
    434c:	48 8b 85 00 fc ff ff 	mov    -0x400(%rbp),%rax
    4353:	48 89 c6             	mov    %rax,%rsi
    4356:	bf 0a 00 00 00       	mov    $0xa,%edi
    435b:	e8 00 00 00 00       	call   4360 <imprimeEmArquivoListaBusca+0xf1>
    4360:	48 8b 85 00 fc ff ff 	mov    -0x400(%rbp),%rax
    4367:	48 89 c7             	mov    %rax,%rdi
    436a:	e8 00 00 00 00       	call   436f <imprimeEmArquivoListaBusca+0x100>
    436f:	90                   	nop
    4370:	48 8b 45 f8          	mov    -0x8(%rbp),%rax
    4374:	64 48 33 04 25 28 00 	xor    %fs:0x28,%rax
    437b:	00 00 
    437d:	74 05                	je     4384 <imprimeEmArquivoListaBusca+0x115>
    437f:	e8 00 00 00 00       	call   4384 <imprimeEmArquivoListaBusca+0x115>
    4384:	c9                   	leave  
    4385:	c3                   	ret    

0000000000004386 <criaMedico>:
    4386:	f3 0f 1e fa          	endbr64 
    438a:	55                   	push   %rbp
    438b:	48 89 e5             	mov    %rsp,%rbp
    438e:	48 83 ec 30          	sub    $0x30,%rsp
    4392:	48 89 7d e8          	mov    %rdi,-0x18(%rbp)
    4396:	48 89 75 e0          	mov    %rsi,-0x20(%rbp)
    439a:	48 89 55 d8          	mov    %rdx,-0x28(%rbp)
    439e:	48 89 4d d0          	mov    %rcx,-0x30(%rbp)
    43a2:	be 48 00 00 00       	mov    $0x48,%esi
    43a7:	bf 01 00 00 00       	mov    $0x1,%edi
    43ac:	e8 00 00 00 00       	call   43b1 <criaMedico+0x2b>
    43b1:	48 89 45 f8          	mov    %rax,-0x8(%rbp)
    43b5:	48 8b 45 f8          	mov    -0x8(%rbp),%rax
    43b9:	c7 00 ff ff ff ff    	movl   $0xffffffff,(%rax)
    43bf:	48 8b 45 f8          	mov    -0x8(%rbp),%rax
    43c3:	48 8b 55 e8          	mov    -0x18(%rbp),%rdx
    43c7:	48 89 50 08          	mov    %rdx,0x8(%rax)
    43cb:	48 8b 45 f8          	mov    -0x8(%rbp),%rax
    43cf:	48 8d 50 10          	lea    0x10(%rax),%rdx
    43d3:	48 8b 45 e0          	mov    -0x20(%rbp),%rax
    43d7:	48 89 c6             	mov    %rax,%rsi
    43da:	48 89 d7             	mov    %rdx,%rdi
    43dd:	e8 00 00 00 00       	call   43e2 <criaMedico+0x5c>
    43e2:	48 8b 45 f8          	mov    -0x8(%rbp),%rax
    43e6:	48 8d 50 1d          	lea    0x1d(%rax),%rdx
    43ea:	48 8b 45 d8          	mov    -0x28(%rbp),%rax
    43ee:	48 89 c6             	mov    %rax,%rsi
    43f1:	48 89 d7             	mov    %rdx,%rdi
    43f4:	e8 00 00 00 00       	call   43f9 <criaMedico+0x73>
    43f9:	48 8b 45 f8          	mov    -0x8(%rbp),%rax
    43fd:	48 8d 50 31          	lea    0x31(%rax),%rdx
    4401:	48 8b 45 d0          	mov    -0x30(%rbp),%rax
    4405:	48 89 c6             	mov    %rax,%rsi
    4408:	48 89 d7             	mov    %rdx,%rdi
    440b:	e8 00 00 00 00       	call   4410 <criaMedico+0x8a>
    4410:	48 8b 45 f8          	mov    -0x8(%rbp),%rax
    4414:	c9                   	leave  
    4415:	c3                   	ret    

0000000000004416 <lerMedico>:
    4416:	f3 0f 1e fa          	endbr64 
    441a:	55                   	push   %rbp
    441b:	48 89 e5             	mov    %rsp,%rbp
    441e:	48 83 ec 60          	sub    $0x60,%rsp
    4422:	64 48 8b 04 25 28 00 	mov    %fs:0x28,%rax
    4429:	00 00 
    442b:	48 89 45 f8          	mov    %rax,-0x8(%rbp)
    442f:	31 c0                	xor    %eax,%eax
    4431:	b8 00 00 00 00       	mov    $0x0,%eax
    4436:	e8 00 00 00 00       	call   443b <lerMedico+0x25>
    443b:	48 89 45 a8          	mov    %rax,-0x58(%rbp)
    443f:	48 8d 3d 00 00 00 00 	lea    0x0(%rip),%rdi        # 4446 <lerMedico+0x30>
    4446:	b8 00 00 00 00       	mov    $0x0,%eax
    444b:	e8 00 00 00 00       	call   4450 <lerMedico+0x3a>
